
h.elf:     file format elf32-littlenios2
h.elf
architecture: nios2:r1, flags 0x00000112:
EXEC_P, HAS_SYMS, D_PAGED
start address 0x00008020

Program Header:
    LOAD off    0x00001000 vaddr 0x00008000 paddr 0x00008000 align 2**12
         filesz 0x00000020 memsz 0x00000020 flags r-x
    LOAD off    0x00001020 vaddr 0x00008020 paddr 0x00008020 align 2**12
         filesz 0x0000490c memsz 0x0000490c flags r-x
    LOAD off    0x0000592c vaddr 0x0000c92c paddr 0x0000d358 align 2**12
         filesz 0x00000a2c memsz 0x00000a2c flags rw-
    LOAD off    0x00006d84 vaddr 0x0000dd84 paddr 0x0000dd84 align 2**12
         filesz 0x00000000 memsz 0x00000044 flags rw-

Sections:
Idx Name          Size      VMA       LMA       File off  Algn
  0 .entry        00000020  00008000  00008000  00001000  2**5
                  CONTENTS, ALLOC, LOAD, READONLY, CODE
  1 .exceptions   00000000  00008020  00008020  00006358  2**0
                  CONTENTS
  2 .text         000048c0  00008020  00008020  00001020  2**2
                  CONTENTS, ALLOC, LOAD, READONLY, CODE
  3 .rodata       0000004c  0000c8e0  0000c8e0  000058e0  2**2
                  CONTENTS, ALLOC, LOAD, READONLY, DATA
  4 .rwdata       00000a2c  0000c92c  0000d358  0000592c  2**2
                  CONTENTS, ALLOC, LOAD, DATA, SMALL_DATA
  5 .bss          00000044  0000dd84  0000dd84  00006d84  2**2
                  ALLOC, SMALL_DATA
  6 .onchip_memory2_0 00000000  0000ddc8  0000ddc8  00006358  2**0
                  CONTENTS
  7 .comment      00000023  00000000  00000000  00006358  2**0
                  CONTENTS, READONLY
  8 .debug_aranges 000008c8  00000000  00000000  00006380  2**3
                  CONTENTS, READONLY, DEBUGGING
  9 .debug_info   000149a8  00000000  00000000  00006c48  2**0
                  CONTENTS, READONLY, DEBUGGING
 10 .debug_abbrev 000053df  00000000  00000000  0001b5f0  2**0
                  CONTENTS, READONLY, DEBUGGING
 11 .debug_line   0000616f  00000000  00000000  000209cf  2**0
                  CONTENTS, READONLY, DEBUGGING
 12 .debug_frame  00001298  00000000  00000000  00026b40  2**2
                  CONTENTS, READONLY, DEBUGGING
 13 .debug_str    00001f92  00000000  00000000  00027dd8  2**0
                  CONTENTS, READONLY, DEBUGGING
 14 .debug_loc    00004ada  00000000  00000000  00029d6a  2**0
                  CONTENTS, READONLY, DEBUGGING
 15 .debug_alt_sim_info 00000040  00000000  00000000  0002e844  2**2
                  CONTENTS, READONLY, DEBUGGING
 16 .debug_ranges 000005d0  00000000  00000000  0002e888  2**3
                  CONTENTS, READONLY, DEBUGGING
 17 .thread_model 00000003  00000000  00000000  00030d94  2**0
                  CONTENTS, READONLY
 18 .cpu          0000000c  00000000  00000000  00030d97  2**0
                  CONTENTS, READONLY
 19 .qsys         00000001  00000000  00000000  00030da3  2**0
                  CONTENTS, READONLY
 20 .simulation_enabled 00000001  00000000  00000000  00030da4  2**0
                  CONTENTS, READONLY
 21 .stderr_dev   0000000b  00000000  00000000  00030da5  2**0
                  CONTENTS, READONLY
 22 .stdin_dev    0000000b  00000000  00000000  00030db0  2**0
                  CONTENTS, READONLY
 23 .stdout_dev   0000000b  00000000  00000000  00030dbb  2**0
                  CONTENTS, READONLY
 24 .sopc_system_name 00000009  00000000  00000000  00030dc6  2**0
                  CONTENTS, READONLY
 25 .sopcinfo     00031b4d  00000000  00000000  00030dcf  2**0
                  CONTENTS, READONLY
SYMBOL TABLE:
00008000 l    d  .entry	00000000 .entry
00008020 l    d  .exceptions	00000000 .exceptions
00008020 l    d  .text	00000000 .text
0000c8e0 l    d  .rodata	00000000 .rodata
0000c92c l    d  .rwdata	00000000 .rwdata
0000dd84 l    d  .bss	00000000 .bss
0000ddc8 l    d  .onchip_memory2_0	00000000 .onchip_memory2_0
00000000 l    d  .comment	00000000 .comment
00000000 l    d  .debug_aranges	00000000 .debug_aranges
00000000 l    d  .debug_info	00000000 .debug_info
00000000 l    d  .debug_abbrev	00000000 .debug_abbrev
00000000 l    d  .debug_line	00000000 .debug_line
00000000 l    d  .debug_frame	00000000 .debug_frame
00000000 l    d  .debug_str	00000000 .debug_str
00000000 l    d  .debug_loc	00000000 .debug_loc
00000000 l    d  .debug_alt_sim_info	00000000 .debug_alt_sim_info
00000000 l    d  .debug_ranges	00000000 .debug_ranges
00000000 l    df *ABS*	00000000 ../teste_bsp//obj/HAL/src/crt0.o
00008058 l       .text	00000000 alt_after_alt_main
00000000 l    df *ABS*	00000000 hello_world.c
00000000 l    df *ABS*	00000000 puts.c
00000000 l    df *ABS*	00000000 strlen.c
00000000 l    df *ABS*	00000000 findfp.c
0000826c l     F .text	00000008 __fp_unlock
00008280 l     F .text	0000019c __sinit.part.1
0000841c l     F .text	00000008 __fp_lock
00000000 l    df *ABS*	00000000 fvwrite.c
00000000 l    df *ABS*	00000000 fwalk.c
00000000 l    df *ABS*	00000000 impure.c
0000c92c l     O .rwdata	00000424 impure_data
00000000 l    df *ABS*	00000000 mallocr.c
00000000 l    df *ABS*	00000000 memchr.c
00000000 l    df *ABS*	00000000 memcpy.c
00000000 l    df *ABS*	00000000 memmove.c
00000000 l    df *ABS*	00000000 memset.c
00000000 l    df *ABS*	00000000 mallocr.c
00000000 l    df *ABS*	00000000 sbrkr.c
00000000 l    df *ABS*	00000000 stdio.c
00000000 l    df *ABS*	00000000 writer.c
00000000 l    df *ABS*	00000000 wsetup.c
00000000 l    df *ABS*	00000000 closer.c
00000000 l    df *ABS*	00000000 fclose.c
00000000 l    df *ABS*	00000000 fflush.c
00000000 l    df *ABS*	00000000 mallocr.c
00000000 l    df *ABS*	00000000 int_errno.c
00000000 l    df *ABS*	00000000 lseekr.c
00000000 l    df *ABS*	00000000 makebuf.c
00000000 l    df *ABS*	00000000 readr.c
00000000 l    df *ABS*	00000000 fstatr.c
00000000 l    df *ABS*	00000000 isattyr.c
00000000 l    df *ABS*	00000000 lib2-divmod.c
00000000 l    df *ABS*	00000000 lib2-mul.c
00000000 l    df *ABS*	00000000 alt_close.c
0000af0c l     F .text	0000003c alt_get_errno
00000000 l    df *ABS*	00000000 alt_dev.c
0000b020 l     F .text	0000002c alt_dev_null_write
00000000 l    df *ABS*	00000000 alt_errno.c
00000000 l    df *ABS*	00000000 alt_fstat.c
0000b04c l     F .text	0000003c alt_get_errno
00000000 l    df *ABS*	00000000 alt_isatty.c
0000b140 l     F .text	0000003c alt_get_errno
00000000 l    df *ABS*	00000000 alt_load.c
0000b228 l     F .text	00000068 alt_load_section
00000000 l    df *ABS*	00000000 alt_lseek.c
0000b314 l     F .text	0000003c alt_get_errno
00000000 l    df *ABS*	00000000 alt_main.c
00000000 l    df *ABS*	00000000 alt_malloc_lock.c
00000000 l    df *ABS*	00000000 alt_read.c
0000b4f0 l     F .text	0000003c alt_get_errno
00000000 l    df *ABS*	00000000 alt_release_fd.c
00000000 l    df *ABS*	00000000 alt_sbrk.c
0000d354 l     O .rwdata	00000004 heap_end
00000000 l    df *ABS*	00000000 alt_usleep.c
00000000 l    df *ABS*	00000000 alt_write.c
0000b794 l     F .text	0000003c alt_get_errno
00000000 l    df *ABS*	00000000 alt_sys_init.c
0000b8d0 l     F .text	00000034 alt_dev_reg
0000d300 l     O .rwdata	0000002c jtag_uart_0
00000000 l    df *ABS*	00000000 altera_avalon_jtag_uart_fd.c
00000000 l    df *ABS*	00000000 altera_avalon_jtag_uart_read.c
00000000 l    df *ABS*	00000000 altera_avalon_jtag_uart_write.c
00000000 l    df *ABS*	00000000 alt_busy_sleep.c
00000000 l    df *ABS*	00000000 alt_dcache_flush_all.c
00000000 l    df *ABS*	00000000 alt_dev_llist_insert.c
0000bd28 l     F .text	0000003c alt_get_errno
00000000 l    df *ABS*	00000000 alt_do_ctors.c
00000000 l    df *ABS*	00000000 alt_do_dtors.c
00000000 l    df *ABS*	00000000 alt_icache_flush_all.c
00000000 l    df *ABS*	00000000 alt_io_redirect.c
0000bee8 l     F .text	000000e4 alt_open_fd
00000000 l    df *ABS*	00000000 alt_open.c
0000c048 l     F .text	0000003c alt_get_errno
0000c084 l     F .text	000000ec alt_file_locked
00000000 l    df *ABS*	00000000 altera_nios2_gen2_irq.c
00000000 l    df *ABS*	00000000 alt_find_dev.c
00000000 l    df *ABS*	00000000 alt_find_file.c
00000000 l    df *ABS*	00000000 alt_get_fd.c
00000000 l    df *ABS*	00000000 atexit.c
00000000 l    df *ABS*	00000000 exit.c
00000000 l    df *ABS*	00000000 memcmp.c
00000000 l    df *ABS*	00000000 __atexit.c
00000000 l    df *ABS*	00000000 __call_atexit.c
00000000 l    df *ABS*	00000000 alt_exit.c
0000acdc g     F .text	00000054 _isatty_r
0000b42c g     F .text	0000007c alt_main
00008100 g     F .text	000000c0 _puts_r
0000aa04 g     F .text	00000060 _lseek_r
0000d358 g       *ABS*	00000000 __flash_rwdata_start
0000ddc8 g       *ABS*	00000000 __alt_heap_start
00009fb8 g     F .text	0000005c __sseek
000085cc g     F .text	00000010 __sinit
00008424 g     F .text	00000078 __sfmoreglue
0000b4cc g     F .text	00000024 __malloc_unlock
000096a4 g     F .text	0000015c memmove
000085b4 g     F .text	00000018 _cleanup
0000c2cc g     F .text	00000024 altera_nios2_gen2_irq_init
00008000 g     F .entry	0000000c __reset
00008020 g       *ABS*	00000000 __flash_exceptions_start
0000ac80 g     F .text	0000005c _fstat_r
0000dd90 g     O .bss	00000004 errno
00009f34 g     F .text	00000008 __seofread
0000dd98 g     O .bss	00000004 alt_argv
0001532c g       *ABS*	00000000 _gp
0000b764 g     F .text	00000030 usleep
0000d180 g     O .rwdata	00000180 alt_fd_list
0000c2f0 g     F .text	00000090 alt_find_dev
0000955c g     F .text	00000148 memcpy
00008274 g     F .text	0000000c _cleanup_r
0000bfcc g     F .text	0000007c alt_io_redirect
0000c8e0 g       *ABS*	00000000 __DTOR_END__
000081c0 g     F .text	00000014 puts
0000ba30 g     F .text	000000ec altera_avalon_jtag_uart_read
00008000 g       *ABS*	00000000 __alt_mem_onchip_memory2_0
0000ae28 g     F .text	00000064 .hidden __udivsi3
0000b17c g     F .text	000000ac isatty
0000dd8c g     O .bss	00000004 __malloc_top_pad
0000861c g     F .text	000004c8 __sfvwrite_r
00009e8c g     F .text	00000054 _sbrk_r
0000ac20 g     F .text	00000060 _read_r
0000d34c g     O .rwdata	00000004 alt_max_fd
0000a224 g     F .text	000000f0 _fclose_r
0000a5a0 g     F .text	00000030 fflush
0000dd88 g     O .bss	00000004 __malloc_max_sbrked_mem
0000b350 g     F .text	000000dc lseek
0000d32c g     O .rwdata	00000004 _global_impure_ptr
00009928 g     F .text	00000564 _realloc_r
0000ddc8 g       *ABS*	00000000 __bss_end
000085ec g     F .text	00000018 __fp_lock_all
0000d158 g     O .rwdata	00000028 alt_dev_null
0000bd08 g     F .text	00000020 alt_dcache_flush_all
0000d358 g       *ABS*	00000000 __ram_rwdata_end
0000d344 g     O .rwdata	00000008 alt_dev_list
0000b7d0 g     F .text	00000100 write
0000c92c g       *ABS*	00000000 __ram_rodata_end
0000b088 g     F .text	000000b8 fstat
0000ae8c g     F .text	00000058 .hidden __umodsi3
0000ddc8 g       *ABS*	00000000 end
0000c8e0 g       *ABS*	00000000 __CTOR_LIST__
00010000 g       *ABS*	00000000 __alt_stack_pointer
0000bb1c g     F .text	00000094 altera_avalon_jtag_uart_write
000085dc g     F .text	00000004 __sfp_lock_acquire
00009478 g     F .text	000000e4 memchr
0000a6f4 g     F .text	00000310 _free_r
0000c72c g     F .text	00000180 __call_exitprocs
0000d334 g     O .rwdata	00000004 __malloc_sbrk_base
00008020 g     F .text	0000003c _start
0000b52c g     F .text	00000104 read
0000b93c g     F .text	00000034 alt_sys_init
0000c614 g     F .text	00000118 __register_exitproc
0000aee4 g     F .text	00000028 .hidden __mulsi3
0000c92c g       *ABS*	00000000 __ram_rwdata_start
0000c8e0 g       *ABS*	00000000 __ram_rodata_start
0000dda0 g     O .bss	00000028 __malloc_current_mallinfo
0000b970 g     F .text	00000060 altera_avalon_jtag_uart_read_fd
0000c488 g     F .text	000000c4 alt_get_fd
0000bbb0 g     F .text	00000158 alt_busy_sleep
0000a1d0 g     F .text	00000054 _close_r
0000c598 g     F .text	0000007c memcmp
0000ddc8 g       *ABS*	00000000 __alt_stack_base
0000a07c g     F .text	00000154 __swsetup_r
0000849c g     F .text	00000118 __sfp
0000cd50 g     O .rwdata	00000408 __malloc_av_
000085e8 g     F .text	00000004 __sinit_lock_release
00009ee0 g     F .text	00000054 __sread
0000c380 g     F .text	00000108 alt_find_file
0000bd64 g     F .text	000000a4 alt_dev_llist_insert
0000b4a8 g     F .text	00000024 __malloc_lock
0000b6b4 g     F .text	000000b0 sbrk
0000a544 g     F .text	0000005c _fflush_r
0000dd84 g       *ABS*	00000000 __bss_start
00009800 g     F .text	00000128 memset
000080a0 g     F .text	00000060 main
0000dd9c g     O .bss	00000004 alt_envp
0000dd84 g     O .bss	00000004 __malloc_max_total_mem
0000b9d0 g     F .text	00000060 altera_avalon_jtag_uart_write_fd
0000a014 g     F .text	00000008 __sclose
00010000 g       *ABS*	00000000 __alt_heap_limit
0000a314 g     F .text	00000014 fclose
00008c6c g     F .text	0000080c _malloc_r
0000d350 g     O .rwdata	00000004 alt_errno
00008ae4 g     F .text	000000c4 _fwalk
0000ad30 g     F .text	00000084 .hidden __divsi3
0000a5d0 g     F .text	00000124 _malloc_trim_r
0000c8e0 g       *ABS*	00000000 __CTOR_END__
0000c8e0 g       *ABS*	00000000 __flash_rodata_start
0000c8e0 g       *ABS*	00000000 __DTOR_LIST__
0000805c g     F .text	00000044 delay
0000b904 g     F .text	00000038 alt_irq_init
0000b630 g     F .text	00000084 alt_release_fd
0000c54c g     F .text	00000014 atexit
0000a01c g     F .text	00000060 _write_r
0000d330 g     O .rwdata	00000004 _impure_ptr
0000dd94 g     O .bss	00000004 alt_argc
0000a328 g     F .text	0000021c __sflush_r
0000be68 g     F .text	00000060 _do_dtors
00008604 g     F .text	00000018 __fp_unlock_all
0000d33c g     O .rwdata	00000008 alt_fs_list
00008020 g       *ABS*	00000000 __ram_exceptions_start
0000d358 g       *ABS*	00000000 _edata
0000ddc8 g       *ABS*	00000000 _end
00008020 g       *ABS*	00000000 __ram_exceptions_end
00009f3c g     F .text	0000007c __swrite
0000d338 g     O .rwdata	00000004 __malloc_trim_threshold
0000c560 g     F .text	00000038 exit
00008ba8 g     F .text	000000c4 _fwalk_reent
0000adb4 g     F .text	00000074 .hidden __modsi3
00010000 g       *ABS*	00000000 __alt_data_end
000085e0 g     F .text	00000004 __sfp_lock_release
0000c8ac g     F .text	00000034 _exit
0000aa64 g     F .text	000001bc __smakebuf_r
000081d4 g     F .text	00000098 strlen
0000c170 g     F .text	0000015c open
0000bec8 g     F .text	00000020 alt_icache_flush_all
0000be08 g     F .text	00000060 _do_ctors
0000af48 g     F .text	000000d8 close
0000b290 g     F .text	00000084 alt_load
000085e4 g     F .text	00000004 __sinit_lock_acquire



Disassembly of section .entry:

00008000 <__reset>:
    8000:	00400034 	movhi	at,0
    8004:	08600814 	ori	at,at,32800
    8008:	0800683a 	jmp	at
	...

Disassembly of section .text:

00008020 <_start>:
    8020:	06c00074 	movhi	sp,1
    8024:	dec00014 	ori	sp,sp,0
    8028:	06800074 	movhi	gp,1
    802c:	d694cb14 	ori	gp,gp,21292
    8030:	00800034 	movhi	r2,0
    8034:	10b76114 	ori	r2,r2,56708
    8038:	00c00034 	movhi	r3,0
    803c:	18f77214 	ori	r3,r3,56776
    8040:	10c00326 	beq	r2,r3,8050 <_start+0x30>
    8044:	10000015 	stw	zero,0(r2)
    8048:	10800104 	addi	r2,r2,4
    804c:	10fffd36 	bltu	r2,r3,8044 <_start+0x24>
    8050:	000b2900 	call	b290 <alt_load>
    8054:	000b42c0 	call	b42c <alt_main>

00008058 <alt_after_alt_main>:
    8058:	003fff06 	br	8058 <alt_after_alt_main>

0000805c <delay>:
    805c:	defffd04 	addi	sp,sp,-12
    8060:	df000215 	stw	fp,8(sp)
    8064:	df000204 	addi	fp,sp,8
    8068:	e13fff15 	stw	r4,-4(fp)
    806c:	e03ffe15 	stw	zero,-8(fp)
    8070:	00000306 	br	8080 <delay+0x24>
    8074:	e0bffe17 	ldw	r2,-8(fp)
    8078:	10800044 	addi	r2,r2,1
    807c:	e0bffe15 	stw	r2,-8(fp)
    8080:	e0bfff17 	ldw	r2,-4(fp)
    8084:	e0fffe17 	ldw	r3,-8(fp)
    8088:	18bffa36 	bltu	r3,r2,8074 <delay+0x18>
    808c:	0001883a 	nop
    8090:	e037883a 	mov	sp,fp
    8094:	df000017 	ldw	fp,0(sp)
    8098:	dec00104 	addi	sp,sp,4
    809c:	f800283a 	ret

000080a0 <main>:
    80a0:	defffd04 	addi	sp,sp,-12
    80a4:	dfc00215 	stw	ra,8(sp)
    80a8:	df000115 	stw	fp,4(sp)
    80ac:	df000104 	addi	fp,sp,4
    80b0:	e03fff15 	stw	zero,-4(fp)
    80b4:	01000074 	movhi	r4,1
    80b8:	21323804 	addi	r4,r4,-14112
    80bc:	00081c00 	call	81c0 <puts>
    80c0:	e0bfff17 	ldw	r2,-4(fp)
    80c4:	108001a8 	cmpgeui	r2,r2,6
    80c8:	10000b1e 	bne	r2,zero,80f8 <main+0x58>
    80cc:	e0bfff17 	ldw	r2,-4(fp)
    80d0:	10c00044 	addi	r3,r2,1
    80d4:	e0ffff15 	stw	r3,-4(fp)
    80d8:	00c00044 	movi	r3,1
    80dc:	1886983a 	sll	r3,r3,r2
    80e0:	00800074 	movhi	r2,1
    80e4:	10840004 	addi	r2,r2,4096
    80e8:	10c00035 	stwio	r3,0(r2)
    80ec:	0130d414 	movui	r4,50000
    80f0:	000b7640 	call	b764 <usleep>
    80f4:	003ff206 	br	80c0 <main+0x20>
    80f8:	e03fff15 	stw	zero,-4(fp)
    80fc:	003ff006 	br	80c0 <main+0x20>

00008100 <_puts_r>:
    8100:	defff604 	addi	sp,sp,-40
    8104:	dc000715 	stw	r16,28(sp)
    8108:	2021883a 	mov	r16,r4
    810c:	2809883a 	mov	r4,r5
    8110:	dc400815 	stw	r17,32(sp)
    8114:	dfc00915 	stw	ra,36(sp)
    8118:	2823883a 	mov	r17,r5
    811c:	00081d40 	call	81d4 <strlen>
    8120:	10c00044 	addi	r3,r2,1
    8124:	d8800115 	stw	r2,4(sp)
    8128:	00800074 	movhi	r2,1
    812c:	10b23c04 	addi	r2,r2,-14096
    8130:	d8800215 	stw	r2,8(sp)
    8134:	00800044 	movi	r2,1
    8138:	d8800315 	stw	r2,12(sp)
    813c:	00800084 	movi	r2,2
    8140:	dc400015 	stw	r17,0(sp)
    8144:	d8c00615 	stw	r3,24(sp)
    8148:	dec00415 	stw	sp,16(sp)
    814c:	d8800515 	stw	r2,20(sp)
    8150:	80000226 	beq	r16,zero,815c <_puts_r+0x5c>
    8154:	80800e17 	ldw	r2,56(r16)
    8158:	10001426 	beq	r2,zero,81ac <_puts_r+0xac>
    815c:	81400217 	ldw	r5,8(r16)
    8160:	2880030b 	ldhu	r2,12(r5)
    8164:	10c8000c 	andi	r3,r2,8192
    8168:	1800061e 	bne	r3,zero,8184 <_puts_r+0x84>
    816c:	29001917 	ldw	r4,100(r5)
    8170:	00f7ffc4 	movi	r3,-8193
    8174:	10880014 	ori	r2,r2,8192
    8178:	20c6703a 	and	r3,r4,r3
    817c:	2880030d 	sth	r2,12(r5)
    8180:	28c01915 	stw	r3,100(r5)
    8184:	d9800404 	addi	r6,sp,16
    8188:	8009883a 	mov	r4,r16
    818c:	000861c0 	call	861c <__sfvwrite_r>
    8190:	1000091e 	bne	r2,zero,81b8 <_puts_r+0xb8>
    8194:	00800284 	movi	r2,10
    8198:	dfc00917 	ldw	ra,36(sp)
    819c:	dc400817 	ldw	r17,32(sp)
    81a0:	dc000717 	ldw	r16,28(sp)
    81a4:	dec00a04 	addi	sp,sp,40
    81a8:	f800283a 	ret
    81ac:	8009883a 	mov	r4,r16
    81b0:	00085cc0 	call	85cc <__sinit>
    81b4:	003fe906 	br	815c <_puts_r+0x5c>
    81b8:	00bfffc4 	movi	r2,-1
    81bc:	003ff606 	br	8198 <_puts_r+0x98>

000081c0 <puts>:
    81c0:	00800074 	movhi	r2,1
    81c4:	10b4cc04 	addi	r2,r2,-11472
    81c8:	200b883a 	mov	r5,r4
    81cc:	11000017 	ldw	r4,0(r2)
    81d0:	00081001 	jmpi	8100 <_puts_r>

000081d4 <strlen>:
    81d4:	208000cc 	andi	r2,r4,3
    81d8:	10002026 	beq	r2,zero,825c <strlen+0x88>
    81dc:	20800007 	ldb	r2,0(r4)
    81e0:	10002026 	beq	r2,zero,8264 <strlen+0x90>
    81e4:	2005883a 	mov	r2,r4
    81e8:	00000206 	br	81f4 <strlen+0x20>
    81ec:	10c00007 	ldb	r3,0(r2)
    81f0:	18001826 	beq	r3,zero,8254 <strlen+0x80>
    81f4:	10800044 	addi	r2,r2,1
    81f8:	10c000cc 	andi	r3,r2,3
    81fc:	183ffb1e 	bne	r3,zero,81ec <strlen+0x18>
    8200:	10c00017 	ldw	r3,0(r2)
    8204:	01ffbff4 	movhi	r7,65279
    8208:	39ffbfc4 	addi	r7,r7,-257
    820c:	00ca303a 	nor	r5,zero,r3
    8210:	01a02074 	movhi	r6,32897
    8214:	19c7883a 	add	r3,r3,r7
    8218:	31a02004 	addi	r6,r6,-32640
    821c:	1946703a 	and	r3,r3,r5
    8220:	1986703a 	and	r3,r3,r6
    8224:	1800091e 	bne	r3,zero,824c <strlen+0x78>
    8228:	10800104 	addi	r2,r2,4
    822c:	10c00017 	ldw	r3,0(r2)
    8230:	19cb883a 	add	r5,r3,r7
    8234:	00c6303a 	nor	r3,zero,r3
    8238:	28c6703a 	and	r3,r5,r3
    823c:	1986703a 	and	r3,r3,r6
    8240:	183ff926 	beq	r3,zero,8228 <strlen+0x54>
    8244:	00000106 	br	824c <strlen+0x78>
    8248:	10800044 	addi	r2,r2,1
    824c:	10c00007 	ldb	r3,0(r2)
    8250:	183ffd1e 	bne	r3,zero,8248 <strlen+0x74>
    8254:	1105c83a 	sub	r2,r2,r4
    8258:	f800283a 	ret
    825c:	2005883a 	mov	r2,r4
    8260:	003fe706 	br	8200 <strlen+0x2c>
    8264:	0005883a 	mov	r2,zero
    8268:	f800283a 	ret

0000826c <__fp_unlock>:
    826c:	0005883a 	mov	r2,zero
    8270:	f800283a 	ret

00008274 <_cleanup_r>:
    8274:	01400074 	movhi	r5,1
    8278:	29688904 	addi	r5,r5,-24028
    827c:	0008ba81 	jmpi	8ba8 <_fwalk_reent>

00008280 <__sinit.part.1>:
    8280:	defff704 	addi	sp,sp,-36
    8284:	00c00074 	movhi	r3,1
    8288:	dfc00815 	stw	ra,32(sp)
    828c:	ddc00715 	stw	r23,28(sp)
    8290:	dd800615 	stw	r22,24(sp)
    8294:	dd400515 	stw	r21,20(sp)
    8298:	dd000415 	stw	r20,16(sp)
    829c:	dcc00315 	stw	r19,12(sp)
    82a0:	dc800215 	stw	r18,8(sp)
    82a4:	dc400115 	stw	r17,4(sp)
    82a8:	dc000015 	stw	r16,0(sp)
    82ac:	18e09d04 	addi	r3,r3,-32140
    82b0:	24000117 	ldw	r16,4(r4)
    82b4:	20c00f15 	stw	r3,60(r4)
    82b8:	2080bb04 	addi	r2,r4,748
    82bc:	00c000c4 	movi	r3,3
    82c0:	20c0b915 	stw	r3,740(r4)
    82c4:	2080ba15 	stw	r2,744(r4)
    82c8:	2000b815 	stw	zero,736(r4)
    82cc:	05c00204 	movi	r23,8
    82d0:	00800104 	movi	r2,4
    82d4:	2025883a 	mov	r18,r4
    82d8:	b80d883a 	mov	r6,r23
    82dc:	81001704 	addi	r4,r16,92
    82e0:	000b883a 	mov	r5,zero
    82e4:	80000015 	stw	zero,0(r16)
    82e8:	80000115 	stw	zero,4(r16)
    82ec:	80000215 	stw	zero,8(r16)
    82f0:	8080030d 	sth	r2,12(r16)
    82f4:	80001915 	stw	zero,100(r16)
    82f8:	8000038d 	sth	zero,14(r16)
    82fc:	80000415 	stw	zero,16(r16)
    8300:	80000515 	stw	zero,20(r16)
    8304:	80000615 	stw	zero,24(r16)
    8308:	00098000 	call	9800 <memset>
    830c:	05800074 	movhi	r22,1
    8310:	94400217 	ldw	r17,8(r18)
    8314:	05400074 	movhi	r21,1
    8318:	05000074 	movhi	r20,1
    831c:	04c00074 	movhi	r19,1
    8320:	b5a7b804 	addi	r22,r22,-24864
    8324:	ad67cf04 	addi	r21,r21,-24772
    8328:	a527ee04 	addi	r20,r20,-24648
    832c:	9ce80504 	addi	r19,r19,-24556
    8330:	85800815 	stw	r22,32(r16)
    8334:	85400915 	stw	r21,36(r16)
    8338:	85000a15 	stw	r20,40(r16)
    833c:	84c00b15 	stw	r19,44(r16)
    8340:	84000715 	stw	r16,28(r16)
    8344:	00800284 	movi	r2,10
    8348:	8880030d 	sth	r2,12(r17)
    834c:	00800044 	movi	r2,1
    8350:	b80d883a 	mov	r6,r23
    8354:	89001704 	addi	r4,r17,92
    8358:	000b883a 	mov	r5,zero
    835c:	88000015 	stw	zero,0(r17)
    8360:	88000115 	stw	zero,4(r17)
    8364:	88000215 	stw	zero,8(r17)
    8368:	88001915 	stw	zero,100(r17)
    836c:	8880038d 	sth	r2,14(r17)
    8370:	88000415 	stw	zero,16(r17)
    8374:	88000515 	stw	zero,20(r17)
    8378:	88000615 	stw	zero,24(r17)
    837c:	00098000 	call	9800 <memset>
    8380:	94000317 	ldw	r16,12(r18)
    8384:	00800484 	movi	r2,18
    8388:	8c400715 	stw	r17,28(r17)
    838c:	8d800815 	stw	r22,32(r17)
    8390:	8d400915 	stw	r21,36(r17)
    8394:	8d000a15 	stw	r20,40(r17)
    8398:	8cc00b15 	stw	r19,44(r17)
    839c:	8080030d 	sth	r2,12(r16)
    83a0:	00800084 	movi	r2,2
    83a4:	80000015 	stw	zero,0(r16)
    83a8:	80000115 	stw	zero,4(r16)
    83ac:	80000215 	stw	zero,8(r16)
    83b0:	80001915 	stw	zero,100(r16)
    83b4:	8080038d 	sth	r2,14(r16)
    83b8:	80000415 	stw	zero,16(r16)
    83bc:	80000515 	stw	zero,20(r16)
    83c0:	80000615 	stw	zero,24(r16)
    83c4:	b80d883a 	mov	r6,r23
    83c8:	000b883a 	mov	r5,zero
    83cc:	81001704 	addi	r4,r16,92
    83d0:	00098000 	call	9800 <memset>
    83d4:	00800044 	movi	r2,1
    83d8:	84000715 	stw	r16,28(r16)
    83dc:	85800815 	stw	r22,32(r16)
    83e0:	85400915 	stw	r21,36(r16)
    83e4:	85000a15 	stw	r20,40(r16)
    83e8:	84c00b15 	stw	r19,44(r16)
    83ec:	90800e15 	stw	r2,56(r18)
    83f0:	dfc00817 	ldw	ra,32(sp)
    83f4:	ddc00717 	ldw	r23,28(sp)
    83f8:	dd800617 	ldw	r22,24(sp)
    83fc:	dd400517 	ldw	r21,20(sp)
    8400:	dd000417 	ldw	r20,16(sp)
    8404:	dcc00317 	ldw	r19,12(sp)
    8408:	dc800217 	ldw	r18,8(sp)
    840c:	dc400117 	ldw	r17,4(sp)
    8410:	dc000017 	ldw	r16,0(sp)
    8414:	dec00904 	addi	sp,sp,36
    8418:	f800283a 	ret

0000841c <__fp_lock>:
    841c:	0005883a 	mov	r2,zero
    8420:	f800283a 	ret

00008424 <__sfmoreglue>:
    8424:	defffc04 	addi	sp,sp,-16
    8428:	dc800215 	stw	r18,8(sp)
    842c:	2825883a 	mov	r18,r5
    8430:	dc000015 	stw	r16,0(sp)
    8434:	01401a04 	movi	r5,104
    8438:	2021883a 	mov	r16,r4
    843c:	913fffc4 	addi	r4,r18,-1
    8440:	dfc00315 	stw	ra,12(sp)
    8444:	dc400115 	stw	r17,4(sp)
    8448:	000aee40 	call	aee4 <__mulsi3>
    844c:	8009883a 	mov	r4,r16
    8450:	11401d04 	addi	r5,r2,116
    8454:	1023883a 	mov	r17,r2
    8458:	0008c6c0 	call	8c6c <_malloc_r>
    845c:	1021883a 	mov	r16,r2
    8460:	10000726 	beq	r2,zero,8480 <__sfmoreglue+0x5c>
    8464:	11000304 	addi	r4,r2,12
    8468:	10000015 	stw	zero,0(r2)
    846c:	14800115 	stw	r18,4(r2)
    8470:	11000215 	stw	r4,8(r2)
    8474:	89801a04 	addi	r6,r17,104
    8478:	000b883a 	mov	r5,zero
    847c:	00098000 	call	9800 <memset>
    8480:	8005883a 	mov	r2,r16
    8484:	dfc00317 	ldw	ra,12(sp)
    8488:	dc800217 	ldw	r18,8(sp)
    848c:	dc400117 	ldw	r17,4(sp)
    8490:	dc000017 	ldw	r16,0(sp)
    8494:	dec00404 	addi	sp,sp,16
    8498:	f800283a 	ret

0000849c <__sfp>:
    849c:	defffb04 	addi	sp,sp,-20
    84a0:	dc000015 	stw	r16,0(sp)
    84a4:	04000074 	movhi	r16,1
    84a8:	8434cb04 	addi	r16,r16,-11476
    84ac:	dcc00315 	stw	r19,12(sp)
    84b0:	2027883a 	mov	r19,r4
    84b4:	81000017 	ldw	r4,0(r16)
    84b8:	dfc00415 	stw	ra,16(sp)
    84bc:	dc800215 	stw	r18,8(sp)
    84c0:	20800e17 	ldw	r2,56(r4)
    84c4:	dc400115 	stw	r17,4(sp)
    84c8:	1000021e 	bne	r2,zero,84d4 <__sfp+0x38>
    84cc:	00082800 	call	8280 <__sinit.part.1>
    84d0:	81000017 	ldw	r4,0(r16)
    84d4:	2480b804 	addi	r18,r4,736
    84d8:	047fffc4 	movi	r17,-1
    84dc:	91000117 	ldw	r4,4(r18)
    84e0:	94000217 	ldw	r16,8(r18)
    84e4:	213fffc4 	addi	r4,r4,-1
    84e8:	20000a16 	blt	r4,zero,8514 <__sfp+0x78>
    84ec:	8080030f 	ldh	r2,12(r16)
    84f0:	10000c26 	beq	r2,zero,8524 <__sfp+0x88>
    84f4:	80c01d04 	addi	r3,r16,116
    84f8:	00000206 	br	8504 <__sfp+0x68>
    84fc:	18bfe60f 	ldh	r2,-104(r3)
    8500:	10000826 	beq	r2,zero,8524 <__sfp+0x88>
    8504:	213fffc4 	addi	r4,r4,-1
    8508:	1c3ffd04 	addi	r16,r3,-12
    850c:	18c01a04 	addi	r3,r3,104
    8510:	247ffa1e 	bne	r4,r17,84fc <__sfp+0x60>
    8514:	90800017 	ldw	r2,0(r18)
    8518:	10001d26 	beq	r2,zero,8590 <__sfp+0xf4>
    851c:	1025883a 	mov	r18,r2
    8520:	003fee06 	br	84dc <__sfp+0x40>
    8524:	00bfffc4 	movi	r2,-1
    8528:	8080038d 	sth	r2,14(r16)
    852c:	00800044 	movi	r2,1
    8530:	8080030d 	sth	r2,12(r16)
    8534:	80001915 	stw	zero,100(r16)
    8538:	80000015 	stw	zero,0(r16)
    853c:	80000215 	stw	zero,8(r16)
    8540:	80000115 	stw	zero,4(r16)
    8544:	80000415 	stw	zero,16(r16)
    8548:	80000515 	stw	zero,20(r16)
    854c:	80000615 	stw	zero,24(r16)
    8550:	01800204 	movi	r6,8
    8554:	000b883a 	mov	r5,zero
    8558:	81001704 	addi	r4,r16,92
    855c:	00098000 	call	9800 <memset>
    8560:	8005883a 	mov	r2,r16
    8564:	80000c15 	stw	zero,48(r16)
    8568:	80000d15 	stw	zero,52(r16)
    856c:	80001115 	stw	zero,68(r16)
    8570:	80001215 	stw	zero,72(r16)
    8574:	dfc00417 	ldw	ra,16(sp)
    8578:	dcc00317 	ldw	r19,12(sp)
    857c:	dc800217 	ldw	r18,8(sp)
    8580:	dc400117 	ldw	r17,4(sp)
    8584:	dc000017 	ldw	r16,0(sp)
    8588:	dec00504 	addi	sp,sp,20
    858c:	f800283a 	ret
    8590:	01400104 	movi	r5,4
    8594:	9809883a 	mov	r4,r19
    8598:	00084240 	call	8424 <__sfmoreglue>
    859c:	90800015 	stw	r2,0(r18)
    85a0:	103fde1e 	bne	r2,zero,851c <__sfp+0x80>
    85a4:	00800304 	movi	r2,12
    85a8:	98800015 	stw	r2,0(r19)
    85ac:	0005883a 	mov	r2,zero
    85b0:	003ff006 	br	8574 <__sfp+0xd8>

000085b4 <_cleanup>:
    85b4:	00800074 	movhi	r2,1
    85b8:	10b4cb04 	addi	r2,r2,-11476
    85bc:	11000017 	ldw	r4,0(r2)
    85c0:	01400074 	movhi	r5,1
    85c4:	29688904 	addi	r5,r5,-24028
    85c8:	0008ba81 	jmpi	8ba8 <_fwalk_reent>

000085cc <__sinit>:
    85cc:	20800e17 	ldw	r2,56(r4)
    85d0:	10000126 	beq	r2,zero,85d8 <__sinit+0xc>
    85d4:	f800283a 	ret
    85d8:	00082801 	jmpi	8280 <__sinit.part.1>

000085dc <__sfp_lock_acquire>:
    85dc:	f800283a 	ret

000085e0 <__sfp_lock_release>:
    85e0:	f800283a 	ret

000085e4 <__sinit_lock_acquire>:
    85e4:	f800283a 	ret

000085e8 <__sinit_lock_release>:
    85e8:	f800283a 	ret

000085ec <__fp_lock_all>:
    85ec:	00800074 	movhi	r2,1
    85f0:	10b4cc04 	addi	r2,r2,-11472
    85f4:	11000017 	ldw	r4,0(r2)
    85f8:	01400074 	movhi	r5,1
    85fc:	29610704 	addi	r5,r5,-31716
    8600:	0008ae41 	jmpi	8ae4 <_fwalk>

00008604 <__fp_unlock_all>:
    8604:	00800074 	movhi	r2,1
    8608:	10b4cc04 	addi	r2,r2,-11472
    860c:	11000017 	ldw	r4,0(r2)
    8610:	01400074 	movhi	r5,1
    8614:	29609b04 	addi	r5,r5,-32148
    8618:	0008ae41 	jmpi	8ae4 <_fwalk>

0000861c <__sfvwrite_r>:
    861c:	30800217 	ldw	r2,8(r6)
    8620:	10006726 	beq	r2,zero,87c0 <__sfvwrite_r+0x1a4>
    8624:	28c0030b 	ldhu	r3,12(r5)
    8628:	defff404 	addi	sp,sp,-48
    862c:	dd400715 	stw	r21,28(sp)
    8630:	dd000615 	stw	r20,24(sp)
    8634:	dc000215 	stw	r16,8(sp)
    8638:	dfc00b15 	stw	ra,44(sp)
    863c:	df000a15 	stw	fp,40(sp)
    8640:	ddc00915 	stw	r23,36(sp)
    8644:	dd800815 	stw	r22,32(sp)
    8648:	dcc00515 	stw	r19,20(sp)
    864c:	dc800415 	stw	r18,16(sp)
    8650:	dc400315 	stw	r17,12(sp)
    8654:	1880020c 	andi	r2,r3,8
    8658:	2821883a 	mov	r16,r5
    865c:	202b883a 	mov	r21,r4
    8660:	3029883a 	mov	r20,r6
    8664:	10002726 	beq	r2,zero,8704 <__sfvwrite_r+0xe8>
    8668:	28800417 	ldw	r2,16(r5)
    866c:	10002526 	beq	r2,zero,8704 <__sfvwrite_r+0xe8>
    8670:	1880008c 	andi	r2,r3,2
    8674:	a4400017 	ldw	r17,0(r20)
    8678:	10002a26 	beq	r2,zero,8724 <__sfvwrite_r+0x108>
    867c:	05a00034 	movhi	r22,32768
    8680:	0027883a 	mov	r19,zero
    8684:	0025883a 	mov	r18,zero
    8688:	b5bf0004 	addi	r22,r22,-1024
    868c:	980d883a 	mov	r6,r19
    8690:	a809883a 	mov	r4,r21
    8694:	90004626 	beq	r18,zero,87b0 <__sfvwrite_r+0x194>
    8698:	900f883a 	mov	r7,r18
    869c:	b480022e 	bgeu	r22,r18,86a8 <__sfvwrite_r+0x8c>
    86a0:	01e00034 	movhi	r7,32768
    86a4:	39ff0004 	addi	r7,r7,-1024
    86a8:	80800917 	ldw	r2,36(r16)
    86ac:	81400717 	ldw	r5,28(r16)
    86b0:	103ee83a 	callr	r2
    86b4:	00805a0e 	bge	zero,r2,8820 <__sfvwrite_r+0x204>
    86b8:	a0c00217 	ldw	r3,8(r20)
    86bc:	98a7883a 	add	r19,r19,r2
    86c0:	90a5c83a 	sub	r18,r18,r2
    86c4:	1885c83a 	sub	r2,r3,r2
    86c8:	a0800215 	stw	r2,8(r20)
    86cc:	103fef1e 	bne	r2,zero,868c <__sfvwrite_r+0x70>
    86d0:	0005883a 	mov	r2,zero
    86d4:	dfc00b17 	ldw	ra,44(sp)
    86d8:	df000a17 	ldw	fp,40(sp)
    86dc:	ddc00917 	ldw	r23,36(sp)
    86e0:	dd800817 	ldw	r22,32(sp)
    86e4:	dd400717 	ldw	r21,28(sp)
    86e8:	dd000617 	ldw	r20,24(sp)
    86ec:	dcc00517 	ldw	r19,20(sp)
    86f0:	dc800417 	ldw	r18,16(sp)
    86f4:	dc400317 	ldw	r17,12(sp)
    86f8:	dc000217 	ldw	r16,8(sp)
    86fc:	dec00c04 	addi	sp,sp,48
    8700:	f800283a 	ret
    8704:	800b883a 	mov	r5,r16
    8708:	a809883a 	mov	r4,r21
    870c:	000a07c0 	call	a07c <__swsetup_r>
    8710:	1000ee1e 	bne	r2,zero,8acc <__sfvwrite_r+0x4b0>
    8714:	80c0030b 	ldhu	r3,12(r16)
    8718:	a4400017 	ldw	r17,0(r20)
    871c:	1880008c 	andi	r2,r3,2
    8720:	103fd61e 	bne	r2,zero,867c <__sfvwrite_r+0x60>
    8724:	1880004c 	andi	r2,r3,1
    8728:	1000421e 	bne	r2,zero,8834 <__sfvwrite_r+0x218>
    872c:	0039883a 	mov	fp,zero
    8730:	0025883a 	mov	r18,zero
    8734:	90001a26 	beq	r18,zero,87a0 <__sfvwrite_r+0x184>
    8738:	1880800c 	andi	r2,r3,512
    873c:	84c00217 	ldw	r19,8(r16)
    8740:	10002126 	beq	r2,zero,87c8 <__sfvwrite_r+0x1ac>
    8744:	982f883a 	mov	r23,r19
    8748:	94c09636 	bltu	r18,r19,89a4 <__sfvwrite_r+0x388>
    874c:	1881200c 	andi	r2,r3,1152
    8750:	1000a11e 	bne	r2,zero,89d8 <__sfvwrite_r+0x3bc>
    8754:	81000017 	ldw	r4,0(r16)
    8758:	b80d883a 	mov	r6,r23
    875c:	e00b883a 	mov	r5,fp
    8760:	00096a40 	call	96a4 <memmove>
    8764:	80c00217 	ldw	r3,8(r16)
    8768:	81000017 	ldw	r4,0(r16)
    876c:	9005883a 	mov	r2,r18
    8770:	1ce7c83a 	sub	r19,r3,r19
    8774:	25cf883a 	add	r7,r4,r23
    8778:	84c00215 	stw	r19,8(r16)
    877c:	81c00015 	stw	r7,0(r16)
    8780:	a0c00217 	ldw	r3,8(r20)
    8784:	e0b9883a 	add	fp,fp,r2
    8788:	90a5c83a 	sub	r18,r18,r2
    878c:	18a7c83a 	sub	r19,r3,r2
    8790:	a4c00215 	stw	r19,8(r20)
    8794:	983fce26 	beq	r19,zero,86d0 <__sfvwrite_r+0xb4>
    8798:	80c0030b 	ldhu	r3,12(r16)
    879c:	903fe61e 	bne	r18,zero,8738 <__sfvwrite_r+0x11c>
    87a0:	8f000017 	ldw	fp,0(r17)
    87a4:	8c800117 	ldw	r18,4(r17)
    87a8:	8c400204 	addi	r17,r17,8
    87ac:	003fe106 	br	8734 <__sfvwrite_r+0x118>
    87b0:	8cc00017 	ldw	r19,0(r17)
    87b4:	8c800117 	ldw	r18,4(r17)
    87b8:	8c400204 	addi	r17,r17,8
    87bc:	003fb306 	br	868c <__sfvwrite_r+0x70>
    87c0:	0005883a 	mov	r2,zero
    87c4:	f800283a 	ret
    87c8:	81000017 	ldw	r4,0(r16)
    87cc:	80800417 	ldw	r2,16(r16)
    87d0:	11005a36 	bltu	r2,r4,893c <__sfvwrite_r+0x320>
    87d4:	85c00517 	ldw	r23,20(r16)
    87d8:	95c05836 	bltu	r18,r23,893c <__sfvwrite_r+0x320>
    87dc:	00a00034 	movhi	r2,32768
    87e0:	10bfffc4 	addi	r2,r2,-1
    87e4:	9009883a 	mov	r4,r18
    87e8:	1480012e 	bgeu	r2,r18,87f0 <__sfvwrite_r+0x1d4>
    87ec:	1009883a 	mov	r4,r2
    87f0:	b80b883a 	mov	r5,r23
    87f4:	000ad300 	call	ad30 <__divsi3>
    87f8:	b80b883a 	mov	r5,r23
    87fc:	1009883a 	mov	r4,r2
    8800:	000aee40 	call	aee4 <__mulsi3>
    8804:	81400717 	ldw	r5,28(r16)
    8808:	80c00917 	ldw	r3,36(r16)
    880c:	100f883a 	mov	r7,r2
    8810:	e00d883a 	mov	r6,fp
    8814:	a809883a 	mov	r4,r21
    8818:	183ee83a 	callr	r3
    881c:	00bfd816 	blt	zero,r2,8780 <__sfvwrite_r+0x164>
    8820:	8080030b 	ldhu	r2,12(r16)
    8824:	10801014 	ori	r2,r2,64
    8828:	8080030d 	sth	r2,12(r16)
    882c:	00bfffc4 	movi	r2,-1
    8830:	003fa806 	br	86d4 <__sfvwrite_r+0xb8>
    8834:	0027883a 	mov	r19,zero
    8838:	0011883a 	mov	r8,zero
    883c:	0039883a 	mov	fp,zero
    8840:	0025883a 	mov	r18,zero
    8844:	90001f26 	beq	r18,zero,88c4 <__sfvwrite_r+0x2a8>
    8848:	40005a26 	beq	r8,zero,89b4 <__sfvwrite_r+0x398>
    884c:	982d883a 	mov	r22,r19
    8850:	94c0012e 	bgeu	r18,r19,8858 <__sfvwrite_r+0x23c>
    8854:	902d883a 	mov	r22,r18
    8858:	81000017 	ldw	r4,0(r16)
    885c:	80800417 	ldw	r2,16(r16)
    8860:	b02f883a 	mov	r23,r22
    8864:	81c00517 	ldw	r7,20(r16)
    8868:	1100032e 	bgeu	r2,r4,8878 <__sfvwrite_r+0x25c>
    886c:	80c00217 	ldw	r3,8(r16)
    8870:	38c7883a 	add	r3,r7,r3
    8874:	1d801816 	blt	r3,r22,88d8 <__sfvwrite_r+0x2bc>
    8878:	b1c03e16 	blt	r22,r7,8974 <__sfvwrite_r+0x358>
    887c:	80800917 	ldw	r2,36(r16)
    8880:	81400717 	ldw	r5,28(r16)
    8884:	e00d883a 	mov	r6,fp
    8888:	da000115 	stw	r8,4(sp)
    888c:	a809883a 	mov	r4,r21
    8890:	103ee83a 	callr	r2
    8894:	102f883a 	mov	r23,r2
    8898:	da000117 	ldw	r8,4(sp)
    889c:	00bfe00e 	bge	zero,r2,8820 <__sfvwrite_r+0x204>
    88a0:	9de7c83a 	sub	r19,r19,r23
    88a4:	98001f26 	beq	r19,zero,8924 <__sfvwrite_r+0x308>
    88a8:	a0800217 	ldw	r2,8(r20)
    88ac:	e5f9883a 	add	fp,fp,r23
    88b0:	95e5c83a 	sub	r18,r18,r23
    88b4:	15efc83a 	sub	r23,r2,r23
    88b8:	a5c00215 	stw	r23,8(r20)
    88bc:	b83f8426 	beq	r23,zero,86d0 <__sfvwrite_r+0xb4>
    88c0:	903fe11e 	bne	r18,zero,8848 <__sfvwrite_r+0x22c>
    88c4:	8f000017 	ldw	fp,0(r17)
    88c8:	8c800117 	ldw	r18,4(r17)
    88cc:	0011883a 	mov	r8,zero
    88d0:	8c400204 	addi	r17,r17,8
    88d4:	003fdb06 	br	8844 <__sfvwrite_r+0x228>
    88d8:	180d883a 	mov	r6,r3
    88dc:	e00b883a 	mov	r5,fp
    88e0:	da000115 	stw	r8,4(sp)
    88e4:	d8c00015 	stw	r3,0(sp)
    88e8:	00096a40 	call	96a4 <memmove>
    88ec:	d8c00017 	ldw	r3,0(sp)
    88f0:	80800017 	ldw	r2,0(r16)
    88f4:	800b883a 	mov	r5,r16
    88f8:	a809883a 	mov	r4,r21
    88fc:	10c5883a 	add	r2,r2,r3
    8900:	80800015 	stw	r2,0(r16)
    8904:	d8c00015 	stw	r3,0(sp)
    8908:	000a5440 	call	a544 <_fflush_r>
    890c:	d8c00017 	ldw	r3,0(sp)
    8910:	da000117 	ldw	r8,4(sp)
    8914:	103fc21e 	bne	r2,zero,8820 <__sfvwrite_r+0x204>
    8918:	182f883a 	mov	r23,r3
    891c:	9de7c83a 	sub	r19,r19,r23
    8920:	983fe11e 	bne	r19,zero,88a8 <__sfvwrite_r+0x28c>
    8924:	800b883a 	mov	r5,r16
    8928:	a809883a 	mov	r4,r21
    892c:	000a5440 	call	a544 <_fflush_r>
    8930:	103fbb1e 	bne	r2,zero,8820 <__sfvwrite_r+0x204>
    8934:	0011883a 	mov	r8,zero
    8938:	003fdb06 	br	88a8 <__sfvwrite_r+0x28c>
    893c:	94c0012e 	bgeu	r18,r19,8944 <__sfvwrite_r+0x328>
    8940:	9027883a 	mov	r19,r18
    8944:	980d883a 	mov	r6,r19
    8948:	e00b883a 	mov	r5,fp
    894c:	00096a40 	call	96a4 <memmove>
    8950:	80800217 	ldw	r2,8(r16)
    8954:	80c00017 	ldw	r3,0(r16)
    8958:	14c5c83a 	sub	r2,r2,r19
    895c:	1cc7883a 	add	r3,r3,r19
    8960:	80800215 	stw	r2,8(r16)
    8964:	80c00015 	stw	r3,0(r16)
    8968:	10004326 	beq	r2,zero,8a78 <__sfvwrite_r+0x45c>
    896c:	9805883a 	mov	r2,r19
    8970:	003f8306 	br	8780 <__sfvwrite_r+0x164>
    8974:	b00d883a 	mov	r6,r22
    8978:	e00b883a 	mov	r5,fp
    897c:	da000115 	stw	r8,4(sp)
    8980:	00096a40 	call	96a4 <memmove>
    8984:	80800217 	ldw	r2,8(r16)
    8988:	80c00017 	ldw	r3,0(r16)
    898c:	da000117 	ldw	r8,4(sp)
    8990:	1585c83a 	sub	r2,r2,r22
    8994:	1dad883a 	add	r22,r3,r22
    8998:	80800215 	stw	r2,8(r16)
    899c:	85800015 	stw	r22,0(r16)
    89a0:	003fbf06 	br	88a0 <__sfvwrite_r+0x284>
    89a4:	81000017 	ldw	r4,0(r16)
    89a8:	9027883a 	mov	r19,r18
    89ac:	902f883a 	mov	r23,r18
    89b0:	003f6906 	br	8758 <__sfvwrite_r+0x13c>
    89b4:	900d883a 	mov	r6,r18
    89b8:	01400284 	movi	r5,10
    89bc:	e009883a 	mov	r4,fp
    89c0:	00094780 	call	9478 <memchr>
    89c4:	10003e26 	beq	r2,zero,8ac0 <__sfvwrite_r+0x4a4>
    89c8:	10800044 	addi	r2,r2,1
    89cc:	1727c83a 	sub	r19,r2,fp
    89d0:	02000044 	movi	r8,1
    89d4:	003f9d06 	br	884c <__sfvwrite_r+0x230>
    89d8:	80800517 	ldw	r2,20(r16)
    89dc:	81400417 	ldw	r5,16(r16)
    89e0:	81c00017 	ldw	r7,0(r16)
    89e4:	10a7883a 	add	r19,r2,r2
    89e8:	9885883a 	add	r2,r19,r2
    89ec:	1026d7fa 	srli	r19,r2,31
    89f0:	396dc83a 	sub	r22,r7,r5
    89f4:	b1000044 	addi	r4,r22,1
    89f8:	9885883a 	add	r2,r19,r2
    89fc:	1027d07a 	srai	r19,r2,1
    8a00:	2485883a 	add	r2,r4,r18
    8a04:	980d883a 	mov	r6,r19
    8a08:	9880022e 	bgeu	r19,r2,8a14 <__sfvwrite_r+0x3f8>
    8a0c:	1027883a 	mov	r19,r2
    8a10:	100d883a 	mov	r6,r2
    8a14:	18c1000c 	andi	r3,r3,1024
    8a18:	18001c26 	beq	r3,zero,8a8c <__sfvwrite_r+0x470>
    8a1c:	300b883a 	mov	r5,r6
    8a20:	a809883a 	mov	r4,r21
    8a24:	0008c6c0 	call	8c6c <_malloc_r>
    8a28:	102f883a 	mov	r23,r2
    8a2c:	10002926 	beq	r2,zero,8ad4 <__sfvwrite_r+0x4b8>
    8a30:	81400417 	ldw	r5,16(r16)
    8a34:	b00d883a 	mov	r6,r22
    8a38:	1009883a 	mov	r4,r2
    8a3c:	000955c0 	call	955c <memcpy>
    8a40:	8080030b 	ldhu	r2,12(r16)
    8a44:	00fedfc4 	movi	r3,-1153
    8a48:	10c4703a 	and	r2,r2,r3
    8a4c:	10802014 	ori	r2,r2,128
    8a50:	8080030d 	sth	r2,12(r16)
    8a54:	bd89883a 	add	r4,r23,r22
    8a58:	9d8fc83a 	sub	r7,r19,r22
    8a5c:	85c00415 	stw	r23,16(r16)
    8a60:	84c00515 	stw	r19,20(r16)
    8a64:	81000015 	stw	r4,0(r16)
    8a68:	9027883a 	mov	r19,r18
    8a6c:	81c00215 	stw	r7,8(r16)
    8a70:	902f883a 	mov	r23,r18
    8a74:	003f3806 	br	8758 <__sfvwrite_r+0x13c>
    8a78:	800b883a 	mov	r5,r16
    8a7c:	a809883a 	mov	r4,r21
    8a80:	000a5440 	call	a544 <_fflush_r>
    8a84:	103fb926 	beq	r2,zero,896c <__sfvwrite_r+0x350>
    8a88:	003f6506 	br	8820 <__sfvwrite_r+0x204>
    8a8c:	a809883a 	mov	r4,r21
    8a90:	00099280 	call	9928 <_realloc_r>
    8a94:	102f883a 	mov	r23,r2
    8a98:	103fee1e 	bne	r2,zero,8a54 <__sfvwrite_r+0x438>
    8a9c:	81400417 	ldw	r5,16(r16)
    8aa0:	a809883a 	mov	r4,r21
    8aa4:	000a6f40 	call	a6f4 <_free_r>
    8aa8:	8080030b 	ldhu	r2,12(r16)
    8aac:	00ffdfc4 	movi	r3,-129
    8ab0:	1884703a 	and	r2,r3,r2
    8ab4:	00c00304 	movi	r3,12
    8ab8:	a8c00015 	stw	r3,0(r21)
    8abc:	003f5906 	br	8824 <__sfvwrite_r+0x208>
    8ac0:	94c00044 	addi	r19,r18,1
    8ac4:	02000044 	movi	r8,1
    8ac8:	003f6006 	br	884c <__sfvwrite_r+0x230>
    8acc:	00bfffc4 	movi	r2,-1
    8ad0:	003f0006 	br	86d4 <__sfvwrite_r+0xb8>
    8ad4:	00800304 	movi	r2,12
    8ad8:	a8800015 	stw	r2,0(r21)
    8adc:	8080030b 	ldhu	r2,12(r16)
    8ae0:	003f5006 	br	8824 <__sfvwrite_r+0x208>

00008ae4 <_fwalk>:
    8ae4:	defff704 	addi	sp,sp,-36
    8ae8:	dd000415 	stw	r20,16(sp)
    8aec:	dfc00815 	stw	ra,32(sp)
    8af0:	ddc00715 	stw	r23,28(sp)
    8af4:	dd800615 	stw	r22,24(sp)
    8af8:	dd400515 	stw	r21,20(sp)
    8afc:	dcc00315 	stw	r19,12(sp)
    8b00:	dc800215 	stw	r18,8(sp)
    8b04:	dc400115 	stw	r17,4(sp)
    8b08:	dc000015 	stw	r16,0(sp)
    8b0c:	2500b804 	addi	r20,r4,736
    8b10:	a0002326 	beq	r20,zero,8ba0 <_fwalk+0xbc>
    8b14:	282b883a 	mov	r21,r5
    8b18:	002f883a 	mov	r23,zero
    8b1c:	05800044 	movi	r22,1
    8b20:	04ffffc4 	movi	r19,-1
    8b24:	a4400117 	ldw	r17,4(r20)
    8b28:	a4800217 	ldw	r18,8(r20)
    8b2c:	8c7fffc4 	addi	r17,r17,-1
    8b30:	88000d16 	blt	r17,zero,8b68 <_fwalk+0x84>
    8b34:	94000304 	addi	r16,r18,12
    8b38:	94800384 	addi	r18,r18,14
    8b3c:	8080000b 	ldhu	r2,0(r16)
    8b40:	8c7fffc4 	addi	r17,r17,-1
    8b44:	813ffd04 	addi	r4,r16,-12
    8b48:	b080042e 	bgeu	r22,r2,8b5c <_fwalk+0x78>
    8b4c:	9080000f 	ldh	r2,0(r18)
    8b50:	14c00226 	beq	r2,r19,8b5c <_fwalk+0x78>
    8b54:	a83ee83a 	callr	r21
    8b58:	b8aeb03a 	or	r23,r23,r2
    8b5c:	84001a04 	addi	r16,r16,104
    8b60:	94801a04 	addi	r18,r18,104
    8b64:	8cfff51e 	bne	r17,r19,8b3c <_fwalk+0x58>
    8b68:	a5000017 	ldw	r20,0(r20)
    8b6c:	a03fed1e 	bne	r20,zero,8b24 <_fwalk+0x40>
    8b70:	b805883a 	mov	r2,r23
    8b74:	dfc00817 	ldw	ra,32(sp)
    8b78:	ddc00717 	ldw	r23,28(sp)
    8b7c:	dd800617 	ldw	r22,24(sp)
    8b80:	dd400517 	ldw	r21,20(sp)
    8b84:	dd000417 	ldw	r20,16(sp)
    8b88:	dcc00317 	ldw	r19,12(sp)
    8b8c:	dc800217 	ldw	r18,8(sp)
    8b90:	dc400117 	ldw	r17,4(sp)
    8b94:	dc000017 	ldw	r16,0(sp)
    8b98:	dec00904 	addi	sp,sp,36
    8b9c:	f800283a 	ret
    8ba0:	002f883a 	mov	r23,zero
    8ba4:	003ff206 	br	8b70 <_fwalk+0x8c>

00008ba8 <_fwalk_reent>:
    8ba8:	defff704 	addi	sp,sp,-36
    8bac:	dd000415 	stw	r20,16(sp)
    8bb0:	dfc00815 	stw	ra,32(sp)
    8bb4:	ddc00715 	stw	r23,28(sp)
    8bb8:	dd800615 	stw	r22,24(sp)
    8bbc:	dd400515 	stw	r21,20(sp)
    8bc0:	dcc00315 	stw	r19,12(sp)
    8bc4:	dc800215 	stw	r18,8(sp)
    8bc8:	dc400115 	stw	r17,4(sp)
    8bcc:	dc000015 	stw	r16,0(sp)
    8bd0:	2500b804 	addi	r20,r4,736
    8bd4:	a0002326 	beq	r20,zero,8c64 <_fwalk_reent+0xbc>
    8bd8:	282b883a 	mov	r21,r5
    8bdc:	2027883a 	mov	r19,r4
    8be0:	002f883a 	mov	r23,zero
    8be4:	05800044 	movi	r22,1
    8be8:	04bfffc4 	movi	r18,-1
    8bec:	a4400117 	ldw	r17,4(r20)
    8bf0:	a4000217 	ldw	r16,8(r20)
    8bf4:	8c7fffc4 	addi	r17,r17,-1
    8bf8:	88000c16 	blt	r17,zero,8c2c <_fwalk_reent+0x84>
    8bfc:	84000304 	addi	r16,r16,12
    8c00:	8080000b 	ldhu	r2,0(r16)
    8c04:	8c7fffc4 	addi	r17,r17,-1
    8c08:	817ffd04 	addi	r5,r16,-12
    8c0c:	b080052e 	bgeu	r22,r2,8c24 <_fwalk_reent+0x7c>
    8c10:	8080008f 	ldh	r2,2(r16)
    8c14:	9809883a 	mov	r4,r19
    8c18:	14800226 	beq	r2,r18,8c24 <_fwalk_reent+0x7c>
    8c1c:	a83ee83a 	callr	r21
    8c20:	b8aeb03a 	or	r23,r23,r2
    8c24:	84001a04 	addi	r16,r16,104
    8c28:	8cbff51e 	bne	r17,r18,8c00 <_fwalk_reent+0x58>
    8c2c:	a5000017 	ldw	r20,0(r20)
    8c30:	a03fee1e 	bne	r20,zero,8bec <_fwalk_reent+0x44>
    8c34:	b805883a 	mov	r2,r23
    8c38:	dfc00817 	ldw	ra,32(sp)
    8c3c:	ddc00717 	ldw	r23,28(sp)
    8c40:	dd800617 	ldw	r22,24(sp)
    8c44:	dd400517 	ldw	r21,20(sp)
    8c48:	dd000417 	ldw	r20,16(sp)
    8c4c:	dcc00317 	ldw	r19,12(sp)
    8c50:	dc800217 	ldw	r18,8(sp)
    8c54:	dc400117 	ldw	r17,4(sp)
    8c58:	dc000017 	ldw	r16,0(sp)
    8c5c:	dec00904 	addi	sp,sp,36
    8c60:	f800283a 	ret
    8c64:	002f883a 	mov	r23,zero
    8c68:	003ff206 	br	8c34 <_fwalk_reent+0x8c>

00008c6c <_malloc_r>:
    8c6c:	defff504 	addi	sp,sp,-44
    8c70:	dc800315 	stw	r18,12(sp)
    8c74:	dfc00a15 	stw	ra,40(sp)
    8c78:	df000915 	stw	fp,36(sp)
    8c7c:	ddc00815 	stw	r23,32(sp)
    8c80:	dd800715 	stw	r22,28(sp)
    8c84:	dd400615 	stw	r21,24(sp)
    8c88:	dd000515 	stw	r20,20(sp)
    8c8c:	dcc00415 	stw	r19,16(sp)
    8c90:	dc400215 	stw	r17,8(sp)
    8c94:	dc000115 	stw	r16,4(sp)
    8c98:	288002c4 	addi	r2,r5,11
    8c9c:	00c00584 	movi	r3,22
    8ca0:	2025883a 	mov	r18,r4
    8ca4:	18807f2e 	bgeu	r3,r2,8ea4 <_malloc_r+0x238>
    8ca8:	047ffe04 	movi	r17,-8
    8cac:	1462703a 	and	r17,r2,r17
    8cb0:	8800a316 	blt	r17,zero,8f40 <_malloc_r+0x2d4>
    8cb4:	8940a236 	bltu	r17,r5,8f40 <_malloc_r+0x2d4>
    8cb8:	000b4a80 	call	b4a8 <__malloc_lock>
    8cbc:	00807dc4 	movi	r2,503
    8cc0:	1441e92e 	bgeu	r2,r17,9468 <_malloc_r+0x7fc>
    8cc4:	8804d27a 	srli	r2,r17,9
    8cc8:	1000a126 	beq	r2,zero,8f50 <_malloc_r+0x2e4>
    8ccc:	00c00104 	movi	r3,4
    8cd0:	18811e36 	bltu	r3,r2,914c <_malloc_r+0x4e0>
    8cd4:	8804d1ba 	srli	r2,r17,6
    8cd8:	12000e44 	addi	r8,r2,57
    8cdc:	11c00e04 	addi	r7,r2,56
    8ce0:	4209883a 	add	r4,r8,r8
    8ce4:	04c00074 	movhi	r19,1
    8ce8:	2109883a 	add	r4,r4,r4
    8cec:	9cf35404 	addi	r19,r19,-12976
    8cf0:	2109883a 	add	r4,r4,r4
    8cf4:	9909883a 	add	r4,r19,r4
    8cf8:	24000117 	ldw	r16,4(r4)
    8cfc:	213ffe04 	addi	r4,r4,-8
    8d00:	24009726 	beq	r4,r16,8f60 <_malloc_r+0x2f4>
    8d04:	80800117 	ldw	r2,4(r16)
    8d08:	01bfff04 	movi	r6,-4
    8d0c:	014003c4 	movi	r5,15
    8d10:	1184703a 	and	r2,r2,r6
    8d14:	1447c83a 	sub	r3,r2,r17
    8d18:	28c00716 	blt	r5,r3,8d38 <_malloc_r+0xcc>
    8d1c:	1800920e 	bge	r3,zero,8f68 <_malloc_r+0x2fc>
    8d20:	84000317 	ldw	r16,12(r16)
    8d24:	24008e26 	beq	r4,r16,8f60 <_malloc_r+0x2f4>
    8d28:	80800117 	ldw	r2,4(r16)
    8d2c:	1184703a 	and	r2,r2,r6
    8d30:	1447c83a 	sub	r3,r2,r17
    8d34:	28fff90e 	bge	r5,r3,8d1c <_malloc_r+0xb0>
    8d38:	3809883a 	mov	r4,r7
    8d3c:	01800074 	movhi	r6,1
    8d40:	9c000417 	ldw	r16,16(r19)
    8d44:	31b35404 	addi	r6,r6,-12976
    8d48:	32000204 	addi	r8,r6,8
    8d4c:	82013426 	beq	r16,r8,9220 <_malloc_r+0x5b4>
    8d50:	80c00117 	ldw	r3,4(r16)
    8d54:	00bfff04 	movi	r2,-4
    8d58:	188e703a 	and	r7,r3,r2
    8d5c:	3c45c83a 	sub	r2,r7,r17
    8d60:	00c003c4 	movi	r3,15
    8d64:	18811f16 	blt	r3,r2,91e4 <_malloc_r+0x578>
    8d68:	32000515 	stw	r8,20(r6)
    8d6c:	32000415 	stw	r8,16(r6)
    8d70:	10007f0e 	bge	r2,zero,8f70 <_malloc_r+0x304>
    8d74:	00807fc4 	movi	r2,511
    8d78:	11c0fd36 	bltu	r2,r7,9170 <_malloc_r+0x504>
    8d7c:	3806d0fa 	srli	r3,r7,3
    8d80:	01c00044 	movi	r7,1
    8d84:	30800117 	ldw	r2,4(r6)
    8d88:	19400044 	addi	r5,r3,1
    8d8c:	294b883a 	add	r5,r5,r5
    8d90:	1807d0ba 	srai	r3,r3,2
    8d94:	294b883a 	add	r5,r5,r5
    8d98:	294b883a 	add	r5,r5,r5
    8d9c:	298b883a 	add	r5,r5,r6
    8da0:	38c6983a 	sll	r3,r7,r3
    8da4:	29c00017 	ldw	r7,0(r5)
    8da8:	2a7ffe04 	addi	r9,r5,-8
    8dac:	1886b03a 	or	r3,r3,r2
    8db0:	82400315 	stw	r9,12(r16)
    8db4:	81c00215 	stw	r7,8(r16)
    8db8:	30c00115 	stw	r3,4(r6)
    8dbc:	2c000015 	stw	r16,0(r5)
    8dc0:	3c000315 	stw	r16,12(r7)
    8dc4:	2005d0ba 	srai	r2,r4,2
    8dc8:	01400044 	movi	r5,1
    8dcc:	288a983a 	sll	r5,r5,r2
    8dd0:	19406f36 	bltu	r3,r5,8f90 <_malloc_r+0x324>
    8dd4:	28c4703a 	and	r2,r5,r3
    8dd8:	10000a1e 	bne	r2,zero,8e04 <_malloc_r+0x198>
    8ddc:	00bfff04 	movi	r2,-4
    8de0:	294b883a 	add	r5,r5,r5
    8de4:	2088703a 	and	r4,r4,r2
    8de8:	28c4703a 	and	r2,r5,r3
    8dec:	21000104 	addi	r4,r4,4
    8df0:	1000041e 	bne	r2,zero,8e04 <_malloc_r+0x198>
    8df4:	294b883a 	add	r5,r5,r5
    8df8:	28c4703a 	and	r2,r5,r3
    8dfc:	21000104 	addi	r4,r4,4
    8e00:	103ffc26 	beq	r2,zero,8df4 <_malloc_r+0x188>
    8e04:	02bfff04 	movi	r10,-4
    8e08:	024003c4 	movi	r9,15
    8e0c:	21800044 	addi	r6,r4,1
    8e10:	318d883a 	add	r6,r6,r6
    8e14:	318d883a 	add	r6,r6,r6
    8e18:	318d883a 	add	r6,r6,r6
    8e1c:	998d883a 	add	r6,r19,r6
    8e20:	333ffe04 	addi	r12,r6,-8
    8e24:	2017883a 	mov	r11,r4
    8e28:	31800104 	addi	r6,r6,4
    8e2c:	34000017 	ldw	r16,0(r6)
    8e30:	31fffd04 	addi	r7,r6,-12
    8e34:	81c0041e 	bne	r16,r7,8e48 <_malloc_r+0x1dc>
    8e38:	0000fb06 	br	9228 <_malloc_r+0x5bc>
    8e3c:	1801030e 	bge	r3,zero,924c <_malloc_r+0x5e0>
    8e40:	84000317 	ldw	r16,12(r16)
    8e44:	81c0f826 	beq	r16,r7,9228 <_malloc_r+0x5bc>
    8e48:	80800117 	ldw	r2,4(r16)
    8e4c:	1284703a 	and	r2,r2,r10
    8e50:	1447c83a 	sub	r3,r2,r17
    8e54:	48fff90e 	bge	r9,r3,8e3c <_malloc_r+0x1d0>
    8e58:	80800317 	ldw	r2,12(r16)
    8e5c:	81000217 	ldw	r4,8(r16)
    8e60:	89400054 	ori	r5,r17,1
    8e64:	81400115 	stw	r5,4(r16)
    8e68:	20800315 	stw	r2,12(r4)
    8e6c:	11000215 	stw	r4,8(r2)
    8e70:	8463883a 	add	r17,r16,r17
    8e74:	9c400515 	stw	r17,20(r19)
    8e78:	9c400415 	stw	r17,16(r19)
    8e7c:	18800054 	ori	r2,r3,1
    8e80:	88800115 	stw	r2,4(r17)
    8e84:	8a000315 	stw	r8,12(r17)
    8e88:	8a000215 	stw	r8,8(r17)
    8e8c:	88e3883a 	add	r17,r17,r3
    8e90:	88c00015 	stw	r3,0(r17)
    8e94:	9009883a 	mov	r4,r18
    8e98:	000b4cc0 	call	b4cc <__malloc_unlock>
    8e9c:	80800204 	addi	r2,r16,8
    8ea0:	00001b06 	br	8f10 <_malloc_r+0x2a4>
    8ea4:	04400404 	movi	r17,16
    8ea8:	89402536 	bltu	r17,r5,8f40 <_malloc_r+0x2d4>
    8eac:	000b4a80 	call	b4a8 <__malloc_lock>
    8eb0:	00800184 	movi	r2,6
    8eb4:	01000084 	movi	r4,2
    8eb8:	04c00074 	movhi	r19,1
    8ebc:	1085883a 	add	r2,r2,r2
    8ec0:	9cf35404 	addi	r19,r19,-12976
    8ec4:	1085883a 	add	r2,r2,r2
    8ec8:	9885883a 	add	r2,r19,r2
    8ecc:	14000117 	ldw	r16,4(r2)
    8ed0:	10fffe04 	addi	r3,r2,-8
    8ed4:	80c0d926 	beq	r16,r3,923c <_malloc_r+0x5d0>
    8ed8:	80c00117 	ldw	r3,4(r16)
    8edc:	81000317 	ldw	r4,12(r16)
    8ee0:	00bfff04 	movi	r2,-4
    8ee4:	1884703a 	and	r2,r3,r2
    8ee8:	81400217 	ldw	r5,8(r16)
    8eec:	8085883a 	add	r2,r16,r2
    8ef0:	10c00117 	ldw	r3,4(r2)
    8ef4:	29000315 	stw	r4,12(r5)
    8ef8:	21400215 	stw	r5,8(r4)
    8efc:	18c00054 	ori	r3,r3,1
    8f00:	10c00115 	stw	r3,4(r2)
    8f04:	9009883a 	mov	r4,r18
    8f08:	000b4cc0 	call	b4cc <__malloc_unlock>
    8f0c:	80800204 	addi	r2,r16,8
    8f10:	dfc00a17 	ldw	ra,40(sp)
    8f14:	df000917 	ldw	fp,36(sp)
    8f18:	ddc00817 	ldw	r23,32(sp)
    8f1c:	dd800717 	ldw	r22,28(sp)
    8f20:	dd400617 	ldw	r21,24(sp)
    8f24:	dd000517 	ldw	r20,20(sp)
    8f28:	dcc00417 	ldw	r19,16(sp)
    8f2c:	dc800317 	ldw	r18,12(sp)
    8f30:	dc400217 	ldw	r17,8(sp)
    8f34:	dc000117 	ldw	r16,4(sp)
    8f38:	dec00b04 	addi	sp,sp,44
    8f3c:	f800283a 	ret
    8f40:	00800304 	movi	r2,12
    8f44:	90800015 	stw	r2,0(r18)
    8f48:	0005883a 	mov	r2,zero
    8f4c:	003ff006 	br	8f10 <_malloc_r+0x2a4>
    8f50:	01002004 	movi	r4,128
    8f54:	02001004 	movi	r8,64
    8f58:	01c00fc4 	movi	r7,63
    8f5c:	003f6106 	br	8ce4 <_malloc_r+0x78>
    8f60:	4009883a 	mov	r4,r8
    8f64:	003f7506 	br	8d3c <_malloc_r+0xd0>
    8f68:	81000317 	ldw	r4,12(r16)
    8f6c:	003fde06 	br	8ee8 <_malloc_r+0x27c>
    8f70:	81c5883a 	add	r2,r16,r7
    8f74:	11400117 	ldw	r5,4(r2)
    8f78:	9009883a 	mov	r4,r18
    8f7c:	29400054 	ori	r5,r5,1
    8f80:	11400115 	stw	r5,4(r2)
    8f84:	000b4cc0 	call	b4cc <__malloc_unlock>
    8f88:	80800204 	addi	r2,r16,8
    8f8c:	003fe006 	br	8f10 <_malloc_r+0x2a4>
    8f90:	9c000217 	ldw	r16,8(r19)
    8f94:	00bfff04 	movi	r2,-4
    8f98:	85800117 	ldw	r22,4(r16)
    8f9c:	b0ac703a 	and	r22,r22,r2
    8fa0:	b4400336 	bltu	r22,r17,8fb0 <_malloc_r+0x344>
    8fa4:	b445c83a 	sub	r2,r22,r17
    8fa8:	00c003c4 	movi	r3,15
    8fac:	18805d16 	blt	r3,r2,9124 <_malloc_r+0x4b8>
    8fb0:	05c00074 	movhi	r23,1
    8fb4:	00800074 	movhi	r2,1
    8fb8:	10b76304 	addi	r2,r2,-8820
    8fbc:	bdf4cd04 	addi	r23,r23,-11468
    8fc0:	15400017 	ldw	r21,0(r2)
    8fc4:	b8c00017 	ldw	r3,0(r23)
    8fc8:	00bfffc4 	movi	r2,-1
    8fcc:	858d883a 	add	r6,r16,r22
    8fd0:	8d6b883a 	add	r21,r17,r21
    8fd4:	1880ea26 	beq	r3,r2,9380 <_malloc_r+0x714>
    8fd8:	ad4403c4 	addi	r21,r21,4111
    8fdc:	00bc0004 	movi	r2,-4096
    8fe0:	a8aa703a 	and	r21,r21,r2
    8fe4:	a80b883a 	mov	r5,r21
    8fe8:	9009883a 	mov	r4,r18
    8fec:	d9800015 	stw	r6,0(sp)
    8ff0:	0009e8c0 	call	9e8c <_sbrk_r>
    8ff4:	1029883a 	mov	r20,r2
    8ff8:	00bfffc4 	movi	r2,-1
    8ffc:	d9800017 	ldw	r6,0(sp)
    9000:	a080e826 	beq	r20,r2,93a4 <_malloc_r+0x738>
    9004:	a180a636 	bltu	r20,r6,92a0 <_malloc_r+0x634>
    9008:	07000074 	movhi	fp,1
    900c:	e7376804 	addi	fp,fp,-8800
    9010:	e0800017 	ldw	r2,0(fp)
    9014:	a887883a 	add	r3,r21,r2
    9018:	e0c00015 	stw	r3,0(fp)
    901c:	3500e626 	beq	r6,r20,93b8 <_malloc_r+0x74c>
    9020:	b9000017 	ldw	r4,0(r23)
    9024:	00bfffc4 	movi	r2,-1
    9028:	2080ee26 	beq	r4,r2,93e4 <_malloc_r+0x778>
    902c:	a185c83a 	sub	r2,r20,r6
    9030:	10c5883a 	add	r2,r2,r3
    9034:	e0800015 	stw	r2,0(fp)
    9038:	a0c001cc 	andi	r3,r20,7
    903c:	1800bc26 	beq	r3,zero,9330 <_malloc_r+0x6c4>
    9040:	a0e9c83a 	sub	r20,r20,r3
    9044:	00840204 	movi	r2,4104
    9048:	a5000204 	addi	r20,r20,8
    904c:	10c7c83a 	sub	r3,r2,r3
    9050:	a545883a 	add	r2,r20,r21
    9054:	1083ffcc 	andi	r2,r2,4095
    9058:	18abc83a 	sub	r21,r3,r2
    905c:	a80b883a 	mov	r5,r21
    9060:	9009883a 	mov	r4,r18
    9064:	0009e8c0 	call	9e8c <_sbrk_r>
    9068:	00ffffc4 	movi	r3,-1
    906c:	10c0e126 	beq	r2,r3,93f4 <_malloc_r+0x788>
    9070:	1505c83a 	sub	r2,r2,r20
    9074:	1545883a 	add	r2,r2,r21
    9078:	10800054 	ori	r2,r2,1
    907c:	e0c00017 	ldw	r3,0(fp)
    9080:	9d000215 	stw	r20,8(r19)
    9084:	a0800115 	stw	r2,4(r20)
    9088:	a8c7883a 	add	r3,r21,r3
    908c:	e0c00015 	stw	r3,0(fp)
    9090:	84c00e26 	beq	r16,r19,90cc <_malloc_r+0x460>
    9094:	018003c4 	movi	r6,15
    9098:	3580a72e 	bgeu	r6,r22,9338 <_malloc_r+0x6cc>
    909c:	81400117 	ldw	r5,4(r16)
    90a0:	013ffe04 	movi	r4,-8
    90a4:	b0bffd04 	addi	r2,r22,-12
    90a8:	1104703a 	and	r2,r2,r4
    90ac:	2900004c 	andi	r4,r5,1
    90b0:	2088b03a 	or	r4,r4,r2
    90b4:	81000115 	stw	r4,4(r16)
    90b8:	01400144 	movi	r5,5
    90bc:	8089883a 	add	r4,r16,r2
    90c0:	21400115 	stw	r5,4(r4)
    90c4:	21400215 	stw	r5,8(r4)
    90c8:	3080cd36 	bltu	r6,r2,9400 <_malloc_r+0x794>
    90cc:	00800074 	movhi	r2,1
    90d0:	10b76204 	addi	r2,r2,-8824
    90d4:	11000017 	ldw	r4,0(r2)
    90d8:	20c0012e 	bgeu	r4,r3,90e0 <_malloc_r+0x474>
    90dc:	10c00015 	stw	r3,0(r2)
    90e0:	00800074 	movhi	r2,1
    90e4:	10b76104 	addi	r2,r2,-8828
    90e8:	11000017 	ldw	r4,0(r2)
    90ec:	9c000217 	ldw	r16,8(r19)
    90f0:	20c0012e 	bgeu	r4,r3,90f8 <_malloc_r+0x48c>
    90f4:	10c00015 	stw	r3,0(r2)
    90f8:	80c00117 	ldw	r3,4(r16)
    90fc:	00bfff04 	movi	r2,-4
    9100:	1886703a 	and	r3,r3,r2
    9104:	1c45c83a 	sub	r2,r3,r17
    9108:	1c400236 	bltu	r3,r17,9114 <_malloc_r+0x4a8>
    910c:	00c003c4 	movi	r3,15
    9110:	18800416 	blt	r3,r2,9124 <_malloc_r+0x4b8>
    9114:	9009883a 	mov	r4,r18
    9118:	000b4cc0 	call	b4cc <__malloc_unlock>
    911c:	0005883a 	mov	r2,zero
    9120:	003f7b06 	br	8f10 <_malloc_r+0x2a4>
    9124:	88c00054 	ori	r3,r17,1
    9128:	80c00115 	stw	r3,4(r16)
    912c:	8463883a 	add	r17,r16,r17
    9130:	10800054 	ori	r2,r2,1
    9134:	9c400215 	stw	r17,8(r19)
    9138:	88800115 	stw	r2,4(r17)
    913c:	9009883a 	mov	r4,r18
    9140:	000b4cc0 	call	b4cc <__malloc_unlock>
    9144:	80800204 	addi	r2,r16,8
    9148:	003f7106 	br	8f10 <_malloc_r+0x2a4>
    914c:	00c00504 	movi	r3,20
    9150:	18804a2e 	bgeu	r3,r2,927c <_malloc_r+0x610>
    9154:	00c01504 	movi	r3,84
    9158:	18806e36 	bltu	r3,r2,9314 <_malloc_r+0x6a8>
    915c:	8804d33a 	srli	r2,r17,12
    9160:	12001bc4 	addi	r8,r2,111
    9164:	11c01b84 	addi	r7,r2,110
    9168:	4209883a 	add	r4,r8,r8
    916c:	003edd06 	br	8ce4 <_malloc_r+0x78>
    9170:	3804d27a 	srli	r2,r7,9
    9174:	00c00104 	movi	r3,4
    9178:	1880442e 	bgeu	r3,r2,928c <_malloc_r+0x620>
    917c:	00c00504 	movi	r3,20
    9180:	18808136 	bltu	r3,r2,9388 <_malloc_r+0x71c>
    9184:	11401704 	addi	r5,r2,92
    9188:	10c016c4 	addi	r3,r2,91
    918c:	294b883a 	add	r5,r5,r5
    9190:	294b883a 	add	r5,r5,r5
    9194:	294b883a 	add	r5,r5,r5
    9198:	994b883a 	add	r5,r19,r5
    919c:	28800017 	ldw	r2,0(r5)
    91a0:	01800074 	movhi	r6,1
    91a4:	297ffe04 	addi	r5,r5,-8
    91a8:	31b35404 	addi	r6,r6,-12976
    91ac:	28806526 	beq	r5,r2,9344 <_malloc_r+0x6d8>
    91b0:	01bfff04 	movi	r6,-4
    91b4:	10c00117 	ldw	r3,4(r2)
    91b8:	1986703a 	and	r3,r3,r6
    91bc:	38c0022e 	bgeu	r7,r3,91c8 <_malloc_r+0x55c>
    91c0:	10800217 	ldw	r2,8(r2)
    91c4:	28bffb1e 	bne	r5,r2,91b4 <_malloc_r+0x548>
    91c8:	11400317 	ldw	r5,12(r2)
    91cc:	98c00117 	ldw	r3,4(r19)
    91d0:	81400315 	stw	r5,12(r16)
    91d4:	80800215 	stw	r2,8(r16)
    91d8:	2c000215 	stw	r16,8(r5)
    91dc:	14000315 	stw	r16,12(r2)
    91e0:	003ef806 	br	8dc4 <_malloc_r+0x158>
    91e4:	88c00054 	ori	r3,r17,1
    91e8:	80c00115 	stw	r3,4(r16)
    91ec:	8463883a 	add	r17,r16,r17
    91f0:	34400515 	stw	r17,20(r6)
    91f4:	34400415 	stw	r17,16(r6)
    91f8:	10c00054 	ori	r3,r2,1
    91fc:	8a000315 	stw	r8,12(r17)
    9200:	8a000215 	stw	r8,8(r17)
    9204:	88c00115 	stw	r3,4(r17)
    9208:	88a3883a 	add	r17,r17,r2
    920c:	88800015 	stw	r2,0(r17)
    9210:	9009883a 	mov	r4,r18
    9214:	000b4cc0 	call	b4cc <__malloc_unlock>
    9218:	80800204 	addi	r2,r16,8
    921c:	003f3c06 	br	8f10 <_malloc_r+0x2a4>
    9220:	30c00117 	ldw	r3,4(r6)
    9224:	003ee706 	br	8dc4 <_malloc_r+0x158>
    9228:	5ac00044 	addi	r11,r11,1
    922c:	588000cc 	andi	r2,r11,3
    9230:	31800204 	addi	r6,r6,8
    9234:	103efd1e 	bne	r2,zero,8e2c <_malloc_r+0x1c0>
    9238:	00002406 	br	92cc <_malloc_r+0x660>
    923c:	14000317 	ldw	r16,12(r2)
    9240:	143f251e 	bne	r2,r16,8ed8 <_malloc_r+0x26c>
    9244:	21000084 	addi	r4,r4,2
    9248:	003ebc06 	br	8d3c <_malloc_r+0xd0>
    924c:	8085883a 	add	r2,r16,r2
    9250:	10c00117 	ldw	r3,4(r2)
    9254:	81000317 	ldw	r4,12(r16)
    9258:	81400217 	ldw	r5,8(r16)
    925c:	18c00054 	ori	r3,r3,1
    9260:	10c00115 	stw	r3,4(r2)
    9264:	29000315 	stw	r4,12(r5)
    9268:	21400215 	stw	r5,8(r4)
    926c:	9009883a 	mov	r4,r18
    9270:	000b4cc0 	call	b4cc <__malloc_unlock>
    9274:	80800204 	addi	r2,r16,8
    9278:	003f2506 	br	8f10 <_malloc_r+0x2a4>
    927c:	12001704 	addi	r8,r2,92
    9280:	11c016c4 	addi	r7,r2,91
    9284:	4209883a 	add	r4,r8,r8
    9288:	003e9606 	br	8ce4 <_malloc_r+0x78>
    928c:	3804d1ba 	srli	r2,r7,6
    9290:	11400e44 	addi	r5,r2,57
    9294:	10c00e04 	addi	r3,r2,56
    9298:	294b883a 	add	r5,r5,r5
    929c:	003fbc06 	br	9190 <_malloc_r+0x524>
    92a0:	84ff5926 	beq	r16,r19,9008 <_malloc_r+0x39c>
    92a4:	00800074 	movhi	r2,1
    92a8:	10b35404 	addi	r2,r2,-12976
    92ac:	14000217 	ldw	r16,8(r2)
    92b0:	00bfff04 	movi	r2,-4
    92b4:	80c00117 	ldw	r3,4(r16)
    92b8:	1886703a 	and	r3,r3,r2
    92bc:	003f9106 	br	9104 <_malloc_r+0x498>
    92c0:	60800217 	ldw	r2,8(r12)
    92c4:	213fffc4 	addi	r4,r4,-1
    92c8:	1300651e 	bne	r2,r12,9460 <_malloc_r+0x7f4>
    92cc:	208000cc 	andi	r2,r4,3
    92d0:	633ffe04 	addi	r12,r12,-8
    92d4:	103ffa1e 	bne	r2,zero,92c0 <_malloc_r+0x654>
    92d8:	98800117 	ldw	r2,4(r19)
    92dc:	0146303a 	nor	r3,zero,r5
    92e0:	1884703a 	and	r2,r3,r2
    92e4:	98800115 	stw	r2,4(r19)
    92e8:	294b883a 	add	r5,r5,r5
    92ec:	117f2836 	bltu	r2,r5,8f90 <_malloc_r+0x324>
    92f0:	283f2726 	beq	r5,zero,8f90 <_malloc_r+0x324>
    92f4:	2886703a 	and	r3,r5,r2
    92f8:	5809883a 	mov	r4,r11
    92fc:	183ec31e 	bne	r3,zero,8e0c <_malloc_r+0x1a0>
    9300:	294b883a 	add	r5,r5,r5
    9304:	2886703a 	and	r3,r5,r2
    9308:	21000104 	addi	r4,r4,4
    930c:	183ffc26 	beq	r3,zero,9300 <_malloc_r+0x694>
    9310:	003ebe06 	br	8e0c <_malloc_r+0x1a0>
    9314:	00c05504 	movi	r3,340
    9318:	18801236 	bltu	r3,r2,9364 <_malloc_r+0x6f8>
    931c:	8804d3fa 	srli	r2,r17,15
    9320:	12001e04 	addi	r8,r2,120
    9324:	11c01dc4 	addi	r7,r2,119
    9328:	4209883a 	add	r4,r8,r8
    932c:	003e6d06 	br	8ce4 <_malloc_r+0x78>
    9330:	00c40004 	movi	r3,4096
    9334:	003f4606 	br	9050 <_malloc_r+0x3e4>
    9338:	00800044 	movi	r2,1
    933c:	a0800115 	stw	r2,4(r20)
    9340:	003f7406 	br	9114 <_malloc_r+0x4a8>
    9344:	1805d0ba 	srai	r2,r3,2
    9348:	01c00044 	movi	r7,1
    934c:	30c00117 	ldw	r3,4(r6)
    9350:	388e983a 	sll	r7,r7,r2
    9354:	2805883a 	mov	r2,r5
    9358:	38c6b03a 	or	r3,r7,r3
    935c:	30c00115 	stw	r3,4(r6)
    9360:	003f9b06 	br	91d0 <_malloc_r+0x564>
    9364:	00c15504 	movi	r3,1364
    9368:	18801a36 	bltu	r3,r2,93d4 <_malloc_r+0x768>
    936c:	8804d4ba 	srli	r2,r17,18
    9370:	12001f44 	addi	r8,r2,125
    9374:	11c01f04 	addi	r7,r2,124
    9378:	4209883a 	add	r4,r8,r8
    937c:	003e5906 	br	8ce4 <_malloc_r+0x78>
    9380:	ad400404 	addi	r21,r21,16
    9384:	003f1706 	br	8fe4 <_malloc_r+0x378>
    9388:	00c01504 	movi	r3,84
    938c:	18802336 	bltu	r3,r2,941c <_malloc_r+0x7b0>
    9390:	3804d33a 	srli	r2,r7,12
    9394:	11401bc4 	addi	r5,r2,111
    9398:	10c01b84 	addi	r3,r2,110
    939c:	294b883a 	add	r5,r5,r5
    93a0:	003f7b06 	br	9190 <_malloc_r+0x524>
    93a4:	9c000217 	ldw	r16,8(r19)
    93a8:	00bfff04 	movi	r2,-4
    93ac:	80c00117 	ldw	r3,4(r16)
    93b0:	1886703a 	and	r3,r3,r2
    93b4:	003f5306 	br	9104 <_malloc_r+0x498>
    93b8:	3083ffcc 	andi	r2,r6,4095
    93bc:	103f181e 	bne	r2,zero,9020 <_malloc_r+0x3b4>
    93c0:	99000217 	ldw	r4,8(r19)
    93c4:	b545883a 	add	r2,r22,r21
    93c8:	10800054 	ori	r2,r2,1
    93cc:	20800115 	stw	r2,4(r4)
    93d0:	003f3e06 	br	90cc <_malloc_r+0x460>
    93d4:	01003f84 	movi	r4,254
    93d8:	02001fc4 	movi	r8,127
    93dc:	01c01f84 	movi	r7,126
    93e0:	003e4006 	br	8ce4 <_malloc_r+0x78>
    93e4:	00800074 	movhi	r2,1
    93e8:	10b4cd04 	addi	r2,r2,-11468
    93ec:	15000015 	stw	r20,0(r2)
    93f0:	003f1106 	br	9038 <_malloc_r+0x3cc>
    93f4:	00800044 	movi	r2,1
    93f8:	002b883a 	mov	r21,zero
    93fc:	003f1f06 	br	907c <_malloc_r+0x410>
    9400:	81400204 	addi	r5,r16,8
    9404:	9009883a 	mov	r4,r18
    9408:	000a6f40 	call	a6f4 <_free_r>
    940c:	00800074 	movhi	r2,1
    9410:	10b76804 	addi	r2,r2,-8800
    9414:	10c00017 	ldw	r3,0(r2)
    9418:	003f2c06 	br	90cc <_malloc_r+0x460>
    941c:	00c05504 	movi	r3,340
    9420:	18800536 	bltu	r3,r2,9438 <_malloc_r+0x7cc>
    9424:	3804d3fa 	srli	r2,r7,15
    9428:	11401e04 	addi	r5,r2,120
    942c:	10c01dc4 	addi	r3,r2,119
    9430:	294b883a 	add	r5,r5,r5
    9434:	003f5606 	br	9190 <_malloc_r+0x524>
    9438:	00c15504 	movi	r3,1364
    943c:	18800536 	bltu	r3,r2,9454 <_malloc_r+0x7e8>
    9440:	3804d4ba 	srli	r2,r7,18
    9444:	11401f44 	addi	r5,r2,125
    9448:	10c01f04 	addi	r3,r2,124
    944c:	294b883a 	add	r5,r5,r5
    9450:	003f4f06 	br	9190 <_malloc_r+0x524>
    9454:	01403f84 	movi	r5,254
    9458:	00c01f84 	movi	r3,126
    945c:	003f4c06 	br	9190 <_malloc_r+0x524>
    9460:	98800117 	ldw	r2,4(r19)
    9464:	003fa006 	br	92e8 <_malloc_r+0x67c>
    9468:	8808d0fa 	srli	r4,r17,3
    946c:	20800044 	addi	r2,r4,1
    9470:	1085883a 	add	r2,r2,r2
    9474:	003e9006 	br	8eb8 <_malloc_r+0x24c>

00009478 <memchr>:
    9478:	208000cc 	andi	r2,r4,3
    947c:	280f883a 	mov	r7,r5
    9480:	10003426 	beq	r2,zero,9554 <memchr+0xdc>
    9484:	30bfffc4 	addi	r2,r6,-1
    9488:	30001a26 	beq	r6,zero,94f4 <memchr+0x7c>
    948c:	20c00003 	ldbu	r3,0(r4)
    9490:	29803fcc 	andi	r6,r5,255
    9494:	30c0051e 	bne	r6,r3,94ac <memchr+0x34>
    9498:	00001806 	br	94fc <memchr+0x84>
    949c:	10001526 	beq	r2,zero,94f4 <memchr+0x7c>
    94a0:	20c00003 	ldbu	r3,0(r4)
    94a4:	10bfffc4 	addi	r2,r2,-1
    94a8:	30c01426 	beq	r6,r3,94fc <memchr+0x84>
    94ac:	21000044 	addi	r4,r4,1
    94b0:	20c000cc 	andi	r3,r4,3
    94b4:	183ff91e 	bne	r3,zero,949c <memchr+0x24>
    94b8:	020000c4 	movi	r8,3
    94bc:	40801136 	bltu	r8,r2,9504 <memchr+0x8c>
    94c0:	10000c26 	beq	r2,zero,94f4 <memchr+0x7c>
    94c4:	20c00003 	ldbu	r3,0(r4)
    94c8:	29403fcc 	andi	r5,r5,255
    94cc:	28c00b26 	beq	r5,r3,94fc <memchr+0x84>
    94d0:	20c00044 	addi	r3,r4,1
    94d4:	39803fcc 	andi	r6,r7,255
    94d8:	2089883a 	add	r4,r4,r2
    94dc:	00000306 	br	94ec <memchr+0x74>
    94e0:	18c00044 	addi	r3,r3,1
    94e4:	197fffc3 	ldbu	r5,-1(r3)
    94e8:	31400526 	beq	r6,r5,9500 <memchr+0x88>
    94ec:	1805883a 	mov	r2,r3
    94f0:	20fffb1e 	bne	r4,r3,94e0 <memchr+0x68>
    94f4:	0005883a 	mov	r2,zero
    94f8:	f800283a 	ret
    94fc:	2005883a 	mov	r2,r4
    9500:	f800283a 	ret
    9504:	28c03fcc 	andi	r3,r5,255
    9508:	1812923a 	slli	r9,r3,8
    950c:	02ffbff4 	movhi	r11,65279
    9510:	02a02074 	movhi	r10,32897
    9514:	48d2b03a 	or	r9,r9,r3
    9518:	4806943a 	slli	r3,r9,16
    951c:	5affbfc4 	addi	r11,r11,-257
    9520:	52a02004 	addi	r10,r10,-32640
    9524:	48d2b03a 	or	r9,r9,r3
    9528:	20c00017 	ldw	r3,0(r4)
    952c:	48c6f03a 	xor	r3,r9,r3
    9530:	1acd883a 	add	r6,r3,r11
    9534:	00c6303a 	nor	r3,zero,r3
    9538:	30c6703a 	and	r3,r6,r3
    953c:	1a86703a 	and	r3,r3,r10
    9540:	183fe01e 	bne	r3,zero,94c4 <memchr+0x4c>
    9544:	10bfff04 	addi	r2,r2,-4
    9548:	21000104 	addi	r4,r4,4
    954c:	40bff636 	bltu	r8,r2,9528 <memchr+0xb0>
    9550:	003fdb06 	br	94c0 <memchr+0x48>
    9554:	3005883a 	mov	r2,r6
    9558:	003fd706 	br	94b8 <memchr+0x40>

0000955c <memcpy>:
    955c:	defffd04 	addi	sp,sp,-12
    9560:	dfc00215 	stw	ra,8(sp)
    9564:	dc400115 	stw	r17,4(sp)
    9568:	dc000015 	stw	r16,0(sp)
    956c:	00c003c4 	movi	r3,15
    9570:	2005883a 	mov	r2,r4
    9574:	1980452e 	bgeu	r3,r6,968c <memcpy+0x130>
    9578:	2906b03a 	or	r3,r5,r4
    957c:	18c000cc 	andi	r3,r3,3
    9580:	1800441e 	bne	r3,zero,9694 <memcpy+0x138>
    9584:	347ffc04 	addi	r17,r6,-16
    9588:	8822d13a 	srli	r17,r17,4
    958c:	28c00104 	addi	r3,r5,4
    9590:	23400104 	addi	r13,r4,4
    9594:	8820913a 	slli	r16,r17,4
    9598:	2b000204 	addi	r12,r5,8
    959c:	22c00204 	addi	r11,r4,8
    95a0:	84000504 	addi	r16,r16,20
    95a4:	2a800304 	addi	r10,r5,12
    95a8:	22400304 	addi	r9,r4,12
    95ac:	2c21883a 	add	r16,r5,r16
    95b0:	2811883a 	mov	r8,r5
    95b4:	200f883a 	mov	r7,r4
    95b8:	41000017 	ldw	r4,0(r8)
    95bc:	1fc00017 	ldw	ra,0(r3)
    95c0:	63c00017 	ldw	r15,0(r12)
    95c4:	39000015 	stw	r4,0(r7)
    95c8:	53800017 	ldw	r14,0(r10)
    95cc:	6fc00015 	stw	ra,0(r13)
    95d0:	5bc00015 	stw	r15,0(r11)
    95d4:	4b800015 	stw	r14,0(r9)
    95d8:	18c00404 	addi	r3,r3,16
    95dc:	39c00404 	addi	r7,r7,16
    95e0:	42000404 	addi	r8,r8,16
    95e4:	6b400404 	addi	r13,r13,16
    95e8:	63000404 	addi	r12,r12,16
    95ec:	5ac00404 	addi	r11,r11,16
    95f0:	52800404 	addi	r10,r10,16
    95f4:	4a400404 	addi	r9,r9,16
    95f8:	1c3fef1e 	bne	r3,r16,95b8 <memcpy+0x5c>
    95fc:	89c00044 	addi	r7,r17,1
    9600:	380e913a 	slli	r7,r7,4
    9604:	310003cc 	andi	r4,r6,15
    9608:	02c000c4 	movi	r11,3
    960c:	11c7883a 	add	r3,r2,r7
    9610:	29cb883a 	add	r5,r5,r7
    9614:	5900212e 	bgeu	r11,r4,969c <memcpy+0x140>
    9618:	1813883a 	mov	r9,r3
    961c:	2811883a 	mov	r8,r5
    9620:	200f883a 	mov	r7,r4
    9624:	42800017 	ldw	r10,0(r8)
    9628:	4a400104 	addi	r9,r9,4
    962c:	39ffff04 	addi	r7,r7,-4
    9630:	4abfff15 	stw	r10,-4(r9)
    9634:	42000104 	addi	r8,r8,4
    9638:	59fffa36 	bltu	r11,r7,9624 <memcpy+0xc8>
    963c:	213fff04 	addi	r4,r4,-4
    9640:	2008d0ba 	srli	r4,r4,2
    9644:	318000cc 	andi	r6,r6,3
    9648:	21000044 	addi	r4,r4,1
    964c:	2109883a 	add	r4,r4,r4
    9650:	2109883a 	add	r4,r4,r4
    9654:	1907883a 	add	r3,r3,r4
    9658:	290b883a 	add	r5,r5,r4
    965c:	30000626 	beq	r6,zero,9678 <memcpy+0x11c>
    9660:	198d883a 	add	r6,r3,r6
    9664:	29c00003 	ldbu	r7,0(r5)
    9668:	18c00044 	addi	r3,r3,1
    966c:	29400044 	addi	r5,r5,1
    9670:	19ffffc5 	stb	r7,-1(r3)
    9674:	19bffb1e 	bne	r3,r6,9664 <memcpy+0x108>
    9678:	dfc00217 	ldw	ra,8(sp)
    967c:	dc400117 	ldw	r17,4(sp)
    9680:	dc000017 	ldw	r16,0(sp)
    9684:	dec00304 	addi	sp,sp,12
    9688:	f800283a 	ret
    968c:	2007883a 	mov	r3,r4
    9690:	003ff206 	br	965c <memcpy+0x100>
    9694:	2007883a 	mov	r3,r4
    9698:	003ff106 	br	9660 <memcpy+0x104>
    969c:	200d883a 	mov	r6,r4
    96a0:	003fee06 	br	965c <memcpy+0x100>

000096a4 <memmove>:
    96a4:	2005883a 	mov	r2,r4
    96a8:	29000b2e 	bgeu	r5,r4,96d8 <memmove+0x34>
    96ac:	298f883a 	add	r7,r5,r6
    96b0:	21c0092e 	bgeu	r4,r7,96d8 <memmove+0x34>
    96b4:	2187883a 	add	r3,r4,r6
    96b8:	198bc83a 	sub	r5,r3,r6
    96bc:	30004826 	beq	r6,zero,97e0 <memmove+0x13c>
    96c0:	39ffffc4 	addi	r7,r7,-1
    96c4:	39000003 	ldbu	r4,0(r7)
    96c8:	18ffffc4 	addi	r3,r3,-1
    96cc:	19000005 	stb	r4,0(r3)
    96d0:	28fffb1e 	bne	r5,r3,96c0 <memmove+0x1c>
    96d4:	f800283a 	ret
    96d8:	00c003c4 	movi	r3,15
    96dc:	1980412e 	bgeu	r3,r6,97e4 <memmove+0x140>
    96e0:	2886b03a 	or	r3,r5,r2
    96e4:	18c000cc 	andi	r3,r3,3
    96e8:	1800401e 	bne	r3,zero,97ec <memmove+0x148>
    96ec:	33fffc04 	addi	r15,r6,-16
    96f0:	781ed13a 	srli	r15,r15,4
    96f4:	28c00104 	addi	r3,r5,4
    96f8:	13400104 	addi	r13,r2,4
    96fc:	781c913a 	slli	r14,r15,4
    9700:	2b000204 	addi	r12,r5,8
    9704:	12c00204 	addi	r11,r2,8
    9708:	73800504 	addi	r14,r14,20
    970c:	2a800304 	addi	r10,r5,12
    9710:	12400304 	addi	r9,r2,12
    9714:	2b9d883a 	add	r14,r5,r14
    9718:	2811883a 	mov	r8,r5
    971c:	100f883a 	mov	r7,r2
    9720:	41000017 	ldw	r4,0(r8)
    9724:	39c00404 	addi	r7,r7,16
    9728:	18c00404 	addi	r3,r3,16
    972c:	393ffc15 	stw	r4,-16(r7)
    9730:	193ffc17 	ldw	r4,-16(r3)
    9734:	6b400404 	addi	r13,r13,16
    9738:	5ac00404 	addi	r11,r11,16
    973c:	693ffc15 	stw	r4,-16(r13)
    9740:	61000017 	ldw	r4,0(r12)
    9744:	4a400404 	addi	r9,r9,16
    9748:	42000404 	addi	r8,r8,16
    974c:	593ffc15 	stw	r4,-16(r11)
    9750:	51000017 	ldw	r4,0(r10)
    9754:	63000404 	addi	r12,r12,16
    9758:	52800404 	addi	r10,r10,16
    975c:	493ffc15 	stw	r4,-16(r9)
    9760:	1bbfef1e 	bne	r3,r14,9720 <memmove+0x7c>
    9764:	79000044 	addi	r4,r15,1
    9768:	2008913a 	slli	r4,r4,4
    976c:	328003cc 	andi	r10,r6,15
    9770:	02c000c4 	movi	r11,3
    9774:	1107883a 	add	r3,r2,r4
    9778:	290b883a 	add	r5,r5,r4
    977c:	5a801e2e 	bgeu	r11,r10,97f8 <memmove+0x154>
    9780:	1813883a 	mov	r9,r3
    9784:	2811883a 	mov	r8,r5
    9788:	500f883a 	mov	r7,r10
    978c:	41000017 	ldw	r4,0(r8)
    9790:	4a400104 	addi	r9,r9,4
    9794:	39ffff04 	addi	r7,r7,-4
    9798:	493fff15 	stw	r4,-4(r9)
    979c:	42000104 	addi	r8,r8,4
    97a0:	59fffa36 	bltu	r11,r7,978c <memmove+0xe8>
    97a4:	513fff04 	addi	r4,r10,-4
    97a8:	2008d0ba 	srli	r4,r4,2
    97ac:	318000cc 	andi	r6,r6,3
    97b0:	21000044 	addi	r4,r4,1
    97b4:	2109883a 	add	r4,r4,r4
    97b8:	2109883a 	add	r4,r4,r4
    97bc:	1907883a 	add	r3,r3,r4
    97c0:	290b883a 	add	r5,r5,r4
    97c4:	30000b26 	beq	r6,zero,97f4 <memmove+0x150>
    97c8:	198d883a 	add	r6,r3,r6
    97cc:	29c00003 	ldbu	r7,0(r5)
    97d0:	18c00044 	addi	r3,r3,1
    97d4:	29400044 	addi	r5,r5,1
    97d8:	19ffffc5 	stb	r7,-1(r3)
    97dc:	19bffb1e 	bne	r3,r6,97cc <memmove+0x128>
    97e0:	f800283a 	ret
    97e4:	1007883a 	mov	r3,r2
    97e8:	003ff606 	br	97c4 <memmove+0x120>
    97ec:	1007883a 	mov	r3,r2
    97f0:	003ff506 	br	97c8 <memmove+0x124>
    97f4:	f800283a 	ret
    97f8:	500d883a 	mov	r6,r10
    97fc:	003ff106 	br	97c4 <memmove+0x120>

00009800 <memset>:
    9800:	20c000cc 	andi	r3,r4,3
    9804:	2005883a 	mov	r2,r4
    9808:	18004426 	beq	r3,zero,991c <memset+0x11c>
    980c:	31ffffc4 	addi	r7,r6,-1
    9810:	30004026 	beq	r6,zero,9914 <memset+0x114>
    9814:	2813883a 	mov	r9,r5
    9818:	200d883a 	mov	r6,r4
    981c:	2007883a 	mov	r3,r4
    9820:	00000406 	br	9834 <memset+0x34>
    9824:	3a3fffc4 	addi	r8,r7,-1
    9828:	31800044 	addi	r6,r6,1
    982c:	38003926 	beq	r7,zero,9914 <memset+0x114>
    9830:	400f883a 	mov	r7,r8
    9834:	18c00044 	addi	r3,r3,1
    9838:	32400005 	stb	r9,0(r6)
    983c:	1a0000cc 	andi	r8,r3,3
    9840:	403ff81e 	bne	r8,zero,9824 <memset+0x24>
    9844:	010000c4 	movi	r4,3
    9848:	21c02d2e 	bgeu	r4,r7,9900 <memset+0x100>
    984c:	29003fcc 	andi	r4,r5,255
    9850:	200c923a 	slli	r6,r4,8
    9854:	3108b03a 	or	r4,r6,r4
    9858:	200c943a 	slli	r6,r4,16
    985c:	218cb03a 	or	r6,r4,r6
    9860:	010003c4 	movi	r4,15
    9864:	21c0182e 	bgeu	r4,r7,98c8 <memset+0xc8>
    9868:	3b3ffc04 	addi	r12,r7,-16
    986c:	6018d13a 	srli	r12,r12,4
    9870:	1a000104 	addi	r8,r3,4
    9874:	1ac00204 	addi	r11,r3,8
    9878:	6008913a 	slli	r4,r12,4
    987c:	1a800304 	addi	r10,r3,12
    9880:	1813883a 	mov	r9,r3
    9884:	21000504 	addi	r4,r4,20
    9888:	1909883a 	add	r4,r3,r4
    988c:	49800015 	stw	r6,0(r9)
    9890:	41800015 	stw	r6,0(r8)
    9894:	59800015 	stw	r6,0(r11)
    9898:	51800015 	stw	r6,0(r10)
    989c:	42000404 	addi	r8,r8,16
    98a0:	4a400404 	addi	r9,r9,16
    98a4:	5ac00404 	addi	r11,r11,16
    98a8:	52800404 	addi	r10,r10,16
    98ac:	413ff71e 	bne	r8,r4,988c <memset+0x8c>
    98b0:	63000044 	addi	r12,r12,1
    98b4:	6018913a 	slli	r12,r12,4
    98b8:	39c003cc 	andi	r7,r7,15
    98bc:	010000c4 	movi	r4,3
    98c0:	1b07883a 	add	r3,r3,r12
    98c4:	21c00e2e 	bgeu	r4,r7,9900 <memset+0x100>
    98c8:	1813883a 	mov	r9,r3
    98cc:	3811883a 	mov	r8,r7
    98d0:	010000c4 	movi	r4,3
    98d4:	49800015 	stw	r6,0(r9)
    98d8:	423fff04 	addi	r8,r8,-4
    98dc:	4a400104 	addi	r9,r9,4
    98e0:	223ffc36 	bltu	r4,r8,98d4 <memset+0xd4>
    98e4:	393fff04 	addi	r4,r7,-4
    98e8:	2008d0ba 	srli	r4,r4,2
    98ec:	39c000cc 	andi	r7,r7,3
    98f0:	21000044 	addi	r4,r4,1
    98f4:	2109883a 	add	r4,r4,r4
    98f8:	2109883a 	add	r4,r4,r4
    98fc:	1907883a 	add	r3,r3,r4
    9900:	38000526 	beq	r7,zero,9918 <memset+0x118>
    9904:	19cf883a 	add	r7,r3,r7
    9908:	19400005 	stb	r5,0(r3)
    990c:	18c00044 	addi	r3,r3,1
    9910:	38fffd1e 	bne	r7,r3,9908 <memset+0x108>
    9914:	f800283a 	ret
    9918:	f800283a 	ret
    991c:	2007883a 	mov	r3,r4
    9920:	300f883a 	mov	r7,r6
    9924:	003fc706 	br	9844 <memset+0x44>

00009928 <_realloc_r>:
    9928:	defff604 	addi	sp,sp,-40
    992c:	dc800215 	stw	r18,8(sp)
    9930:	dfc00915 	stw	ra,36(sp)
    9934:	df000815 	stw	fp,32(sp)
    9938:	ddc00715 	stw	r23,28(sp)
    993c:	dd800615 	stw	r22,24(sp)
    9940:	dd400515 	stw	r21,20(sp)
    9944:	dd000415 	stw	r20,16(sp)
    9948:	dcc00315 	stw	r19,12(sp)
    994c:	dc400115 	stw	r17,4(sp)
    9950:	dc000015 	stw	r16,0(sp)
    9954:	3025883a 	mov	r18,r6
    9958:	2800b726 	beq	r5,zero,9c38 <_realloc_r+0x310>
    995c:	282b883a 	mov	r21,r5
    9960:	2029883a 	mov	r20,r4
    9964:	000b4a80 	call	b4a8 <__malloc_lock>
    9968:	a8bfff17 	ldw	r2,-4(r21)
    996c:	043fff04 	movi	r16,-4
    9970:	90c002c4 	addi	r3,r18,11
    9974:	01000584 	movi	r4,22
    9978:	acfffe04 	addi	r19,r21,-8
    997c:	1420703a 	and	r16,r2,r16
    9980:	20c0332e 	bgeu	r4,r3,9a50 <_realloc_r+0x128>
    9984:	047ffe04 	movi	r17,-8
    9988:	1c62703a 	and	r17,r3,r17
    998c:	8807883a 	mov	r3,r17
    9990:	88005816 	blt	r17,zero,9af4 <_realloc_r+0x1cc>
    9994:	8c805736 	bltu	r17,r18,9af4 <_realloc_r+0x1cc>
    9998:	80c0300e 	bge	r16,r3,9a5c <_realloc_r+0x134>
    999c:	07000074 	movhi	fp,1
    99a0:	e7335404 	addi	fp,fp,-12976
    99a4:	e1c00217 	ldw	r7,8(fp)
    99a8:	9c09883a 	add	r4,r19,r16
    99ac:	22000117 	ldw	r8,4(r4)
    99b0:	21c06326 	beq	r4,r7,9b40 <_realloc_r+0x218>
    99b4:	017fff84 	movi	r5,-2
    99b8:	414a703a 	and	r5,r8,r5
    99bc:	214b883a 	add	r5,r4,r5
    99c0:	29800117 	ldw	r6,4(r5)
    99c4:	3180004c 	andi	r6,r6,1
    99c8:	30003f26 	beq	r6,zero,9ac8 <_realloc_r+0x1a0>
    99cc:	1080004c 	andi	r2,r2,1
    99d0:	10008326 	beq	r2,zero,9be0 <_realloc_r+0x2b8>
    99d4:	900b883a 	mov	r5,r18
    99d8:	a009883a 	mov	r4,r20
    99dc:	0008c6c0 	call	8c6c <_malloc_r>
    99e0:	1025883a 	mov	r18,r2
    99e4:	10011e26 	beq	r2,zero,9e60 <_realloc_r+0x538>
    99e8:	a93fff17 	ldw	r4,-4(r21)
    99ec:	10fffe04 	addi	r3,r2,-8
    99f0:	00bfff84 	movi	r2,-2
    99f4:	2084703a 	and	r2,r4,r2
    99f8:	9885883a 	add	r2,r19,r2
    99fc:	1880ee26 	beq	r3,r2,9db8 <_realloc_r+0x490>
    9a00:	81bfff04 	addi	r6,r16,-4
    9a04:	00800904 	movi	r2,36
    9a08:	1180b836 	bltu	r2,r6,9cec <_realloc_r+0x3c4>
    9a0c:	00c004c4 	movi	r3,19
    9a10:	19809636 	bltu	r3,r6,9c6c <_realloc_r+0x344>
    9a14:	9005883a 	mov	r2,r18
    9a18:	a807883a 	mov	r3,r21
    9a1c:	19000017 	ldw	r4,0(r3)
    9a20:	11000015 	stw	r4,0(r2)
    9a24:	19000117 	ldw	r4,4(r3)
    9a28:	11000115 	stw	r4,4(r2)
    9a2c:	18c00217 	ldw	r3,8(r3)
    9a30:	10c00215 	stw	r3,8(r2)
    9a34:	a80b883a 	mov	r5,r21
    9a38:	a009883a 	mov	r4,r20
    9a3c:	000a6f40 	call	a6f4 <_free_r>
    9a40:	a009883a 	mov	r4,r20
    9a44:	000b4cc0 	call	b4cc <__malloc_unlock>
    9a48:	9005883a 	mov	r2,r18
    9a4c:	00001206 	br	9a98 <_realloc_r+0x170>
    9a50:	00c00404 	movi	r3,16
    9a54:	1823883a 	mov	r17,r3
    9a58:	003fce06 	br	9994 <_realloc_r+0x6c>
    9a5c:	a825883a 	mov	r18,r21
    9a60:	8445c83a 	sub	r2,r16,r17
    9a64:	00c003c4 	movi	r3,15
    9a68:	18802636 	bltu	r3,r2,9b04 <_realloc_r+0x1dc>
    9a6c:	99800117 	ldw	r6,4(r19)
    9a70:	9c07883a 	add	r3,r19,r16
    9a74:	3180004c 	andi	r6,r6,1
    9a78:	3420b03a 	or	r16,r6,r16
    9a7c:	9c000115 	stw	r16,4(r19)
    9a80:	18800117 	ldw	r2,4(r3)
    9a84:	10800054 	ori	r2,r2,1
    9a88:	18800115 	stw	r2,4(r3)
    9a8c:	a009883a 	mov	r4,r20
    9a90:	000b4cc0 	call	b4cc <__malloc_unlock>
    9a94:	9005883a 	mov	r2,r18
    9a98:	dfc00917 	ldw	ra,36(sp)
    9a9c:	df000817 	ldw	fp,32(sp)
    9aa0:	ddc00717 	ldw	r23,28(sp)
    9aa4:	dd800617 	ldw	r22,24(sp)
    9aa8:	dd400517 	ldw	r21,20(sp)
    9aac:	dd000417 	ldw	r20,16(sp)
    9ab0:	dcc00317 	ldw	r19,12(sp)
    9ab4:	dc800217 	ldw	r18,8(sp)
    9ab8:	dc400117 	ldw	r17,4(sp)
    9abc:	dc000017 	ldw	r16,0(sp)
    9ac0:	dec00a04 	addi	sp,sp,40
    9ac4:	f800283a 	ret
    9ac8:	017fff04 	movi	r5,-4
    9acc:	414a703a 	and	r5,r8,r5
    9ad0:	814d883a 	add	r6,r16,r5
    9ad4:	30c01f16 	blt	r6,r3,9b54 <_realloc_r+0x22c>
    9ad8:	20800317 	ldw	r2,12(r4)
    9adc:	20c00217 	ldw	r3,8(r4)
    9ae0:	a825883a 	mov	r18,r21
    9ae4:	3021883a 	mov	r16,r6
    9ae8:	18800315 	stw	r2,12(r3)
    9aec:	10c00215 	stw	r3,8(r2)
    9af0:	003fdb06 	br	9a60 <_realloc_r+0x138>
    9af4:	00800304 	movi	r2,12
    9af8:	a0800015 	stw	r2,0(r20)
    9afc:	0005883a 	mov	r2,zero
    9b00:	003fe506 	br	9a98 <_realloc_r+0x170>
    9b04:	98c00117 	ldw	r3,4(r19)
    9b08:	9c4b883a 	add	r5,r19,r17
    9b0c:	11000054 	ori	r4,r2,1
    9b10:	18c0004c 	andi	r3,r3,1
    9b14:	1c62b03a 	or	r17,r3,r17
    9b18:	9c400115 	stw	r17,4(r19)
    9b1c:	29000115 	stw	r4,4(r5)
    9b20:	2885883a 	add	r2,r5,r2
    9b24:	10c00117 	ldw	r3,4(r2)
    9b28:	29400204 	addi	r5,r5,8
    9b2c:	a009883a 	mov	r4,r20
    9b30:	18c00054 	ori	r3,r3,1
    9b34:	10c00115 	stw	r3,4(r2)
    9b38:	000a6f40 	call	a6f4 <_free_r>
    9b3c:	003fd306 	br	9a8c <_realloc_r+0x164>
    9b40:	017fff04 	movi	r5,-4
    9b44:	414a703a 	and	r5,r8,r5
    9b48:	89800404 	addi	r6,r17,16
    9b4c:	8151883a 	add	r8,r16,r5
    9b50:	4180590e 	bge	r8,r6,9cb8 <_realloc_r+0x390>
    9b54:	1080004c 	andi	r2,r2,1
    9b58:	103f9e1e 	bne	r2,zero,99d4 <_realloc_r+0xac>
    9b5c:	adbffe17 	ldw	r22,-8(r21)
    9b60:	00bfff04 	movi	r2,-4
    9b64:	9dadc83a 	sub	r22,r19,r22
    9b68:	b1800117 	ldw	r6,4(r22)
    9b6c:	3084703a 	and	r2,r6,r2
    9b70:	20002026 	beq	r4,zero,9bf4 <_realloc_r+0x2cc>
    9b74:	80af883a 	add	r23,r16,r2
    9b78:	b96f883a 	add	r23,r23,r5
    9b7c:	21c05f26 	beq	r4,r7,9cfc <_realloc_r+0x3d4>
    9b80:	b8c01c16 	blt	r23,r3,9bf4 <_realloc_r+0x2cc>
    9b84:	20800317 	ldw	r2,12(r4)
    9b88:	20c00217 	ldw	r3,8(r4)
    9b8c:	81bfff04 	addi	r6,r16,-4
    9b90:	01000904 	movi	r4,36
    9b94:	18800315 	stw	r2,12(r3)
    9b98:	10c00215 	stw	r3,8(r2)
    9b9c:	b0c00217 	ldw	r3,8(r22)
    9ba0:	b0800317 	ldw	r2,12(r22)
    9ba4:	b4800204 	addi	r18,r22,8
    9ba8:	18800315 	stw	r2,12(r3)
    9bac:	10c00215 	stw	r3,8(r2)
    9bb0:	21801b36 	bltu	r4,r6,9c20 <_realloc_r+0x2f8>
    9bb4:	008004c4 	movi	r2,19
    9bb8:	1180352e 	bgeu	r2,r6,9c90 <_realloc_r+0x368>
    9bbc:	a8800017 	ldw	r2,0(r21)
    9bc0:	b0800215 	stw	r2,8(r22)
    9bc4:	a8800117 	ldw	r2,4(r21)
    9bc8:	b0800315 	stw	r2,12(r22)
    9bcc:	008006c4 	movi	r2,27
    9bd0:	11807f36 	bltu	r2,r6,9dd0 <_realloc_r+0x4a8>
    9bd4:	b0800404 	addi	r2,r22,16
    9bd8:	ad400204 	addi	r21,r21,8
    9bdc:	00002d06 	br	9c94 <_realloc_r+0x36c>
    9be0:	adbffe17 	ldw	r22,-8(r21)
    9be4:	00bfff04 	movi	r2,-4
    9be8:	9dadc83a 	sub	r22,r19,r22
    9bec:	b1000117 	ldw	r4,4(r22)
    9bf0:	2084703a 	and	r2,r4,r2
    9bf4:	b03f7726 	beq	r22,zero,99d4 <_realloc_r+0xac>
    9bf8:	80af883a 	add	r23,r16,r2
    9bfc:	b8ff7516 	blt	r23,r3,99d4 <_realloc_r+0xac>
    9c00:	b0800317 	ldw	r2,12(r22)
    9c04:	b0c00217 	ldw	r3,8(r22)
    9c08:	81bfff04 	addi	r6,r16,-4
    9c0c:	01000904 	movi	r4,36
    9c10:	18800315 	stw	r2,12(r3)
    9c14:	10c00215 	stw	r3,8(r2)
    9c18:	b4800204 	addi	r18,r22,8
    9c1c:	21bfe52e 	bgeu	r4,r6,9bb4 <_realloc_r+0x28c>
    9c20:	a80b883a 	mov	r5,r21
    9c24:	9009883a 	mov	r4,r18
    9c28:	00096a40 	call	96a4 <memmove>
    9c2c:	b821883a 	mov	r16,r23
    9c30:	b027883a 	mov	r19,r22
    9c34:	003f8a06 	br	9a60 <_realloc_r+0x138>
    9c38:	300b883a 	mov	r5,r6
    9c3c:	dfc00917 	ldw	ra,36(sp)
    9c40:	df000817 	ldw	fp,32(sp)
    9c44:	ddc00717 	ldw	r23,28(sp)
    9c48:	dd800617 	ldw	r22,24(sp)
    9c4c:	dd400517 	ldw	r21,20(sp)
    9c50:	dd000417 	ldw	r20,16(sp)
    9c54:	dcc00317 	ldw	r19,12(sp)
    9c58:	dc800217 	ldw	r18,8(sp)
    9c5c:	dc400117 	ldw	r17,4(sp)
    9c60:	dc000017 	ldw	r16,0(sp)
    9c64:	dec00a04 	addi	sp,sp,40
    9c68:	0008c6c1 	jmpi	8c6c <_malloc_r>
    9c6c:	a8c00017 	ldw	r3,0(r21)
    9c70:	90c00015 	stw	r3,0(r18)
    9c74:	a8c00117 	ldw	r3,4(r21)
    9c78:	90c00115 	stw	r3,4(r18)
    9c7c:	00c006c4 	movi	r3,27
    9c80:	19804536 	bltu	r3,r6,9d98 <_realloc_r+0x470>
    9c84:	90800204 	addi	r2,r18,8
    9c88:	a8c00204 	addi	r3,r21,8
    9c8c:	003f6306 	br	9a1c <_realloc_r+0xf4>
    9c90:	9005883a 	mov	r2,r18
    9c94:	a8c00017 	ldw	r3,0(r21)
    9c98:	b821883a 	mov	r16,r23
    9c9c:	b027883a 	mov	r19,r22
    9ca0:	10c00015 	stw	r3,0(r2)
    9ca4:	a8c00117 	ldw	r3,4(r21)
    9ca8:	10c00115 	stw	r3,4(r2)
    9cac:	a8c00217 	ldw	r3,8(r21)
    9cb0:	10c00215 	stw	r3,8(r2)
    9cb4:	003f6a06 	br	9a60 <_realloc_r+0x138>
    9cb8:	9c67883a 	add	r19,r19,r17
    9cbc:	4445c83a 	sub	r2,r8,r17
    9cc0:	e4c00215 	stw	r19,8(fp)
    9cc4:	10800054 	ori	r2,r2,1
    9cc8:	98800115 	stw	r2,4(r19)
    9ccc:	a8bfff17 	ldw	r2,-4(r21)
    9cd0:	a009883a 	mov	r4,r20
    9cd4:	1080004c 	andi	r2,r2,1
    9cd8:	1462b03a 	or	r17,r2,r17
    9cdc:	ac7fff15 	stw	r17,-4(r21)
    9ce0:	000b4cc0 	call	b4cc <__malloc_unlock>
    9ce4:	a805883a 	mov	r2,r21
    9ce8:	003f6b06 	br	9a98 <_realloc_r+0x170>
    9cec:	a80b883a 	mov	r5,r21
    9cf0:	9009883a 	mov	r4,r18
    9cf4:	00096a40 	call	96a4 <memmove>
    9cf8:	003f4e06 	br	9a34 <_realloc_r+0x10c>
    9cfc:	89000404 	addi	r4,r17,16
    9d00:	b93fbc16 	blt	r23,r4,9bf4 <_realloc_r+0x2cc>
    9d04:	b0800317 	ldw	r2,12(r22)
    9d08:	b0c00217 	ldw	r3,8(r22)
    9d0c:	81bfff04 	addi	r6,r16,-4
    9d10:	01000904 	movi	r4,36
    9d14:	18800315 	stw	r2,12(r3)
    9d18:	10c00215 	stw	r3,8(r2)
    9d1c:	b4800204 	addi	r18,r22,8
    9d20:	21804336 	bltu	r4,r6,9e30 <_realloc_r+0x508>
    9d24:	008004c4 	movi	r2,19
    9d28:	11803f2e 	bgeu	r2,r6,9e28 <_realloc_r+0x500>
    9d2c:	a8800017 	ldw	r2,0(r21)
    9d30:	b0800215 	stw	r2,8(r22)
    9d34:	a8800117 	ldw	r2,4(r21)
    9d38:	b0800315 	stw	r2,12(r22)
    9d3c:	008006c4 	movi	r2,27
    9d40:	11803f36 	bltu	r2,r6,9e40 <_realloc_r+0x518>
    9d44:	b0800404 	addi	r2,r22,16
    9d48:	ad400204 	addi	r21,r21,8
    9d4c:	a8c00017 	ldw	r3,0(r21)
    9d50:	10c00015 	stw	r3,0(r2)
    9d54:	a8c00117 	ldw	r3,4(r21)
    9d58:	10c00115 	stw	r3,4(r2)
    9d5c:	a8c00217 	ldw	r3,8(r21)
    9d60:	10c00215 	stw	r3,8(r2)
    9d64:	b447883a 	add	r3,r22,r17
    9d68:	bc45c83a 	sub	r2,r23,r17
    9d6c:	e0c00215 	stw	r3,8(fp)
    9d70:	10800054 	ori	r2,r2,1
    9d74:	18800115 	stw	r2,4(r3)
    9d78:	b0800117 	ldw	r2,4(r22)
    9d7c:	a009883a 	mov	r4,r20
    9d80:	1080004c 	andi	r2,r2,1
    9d84:	1462b03a 	or	r17,r2,r17
    9d88:	b4400115 	stw	r17,4(r22)
    9d8c:	000b4cc0 	call	b4cc <__malloc_unlock>
    9d90:	9005883a 	mov	r2,r18
    9d94:	003f4006 	br	9a98 <_realloc_r+0x170>
    9d98:	a8c00217 	ldw	r3,8(r21)
    9d9c:	90c00215 	stw	r3,8(r18)
    9da0:	a8c00317 	ldw	r3,12(r21)
    9da4:	90c00315 	stw	r3,12(r18)
    9da8:	30801126 	beq	r6,r2,9df0 <_realloc_r+0x4c8>
    9dac:	90800404 	addi	r2,r18,16
    9db0:	a8c00404 	addi	r3,r21,16
    9db4:	003f1906 	br	9a1c <_realloc_r+0xf4>
    9db8:	90ffff17 	ldw	r3,-4(r18)
    9dbc:	00bfff04 	movi	r2,-4
    9dc0:	a825883a 	mov	r18,r21
    9dc4:	1884703a 	and	r2,r3,r2
    9dc8:	80a1883a 	add	r16,r16,r2
    9dcc:	003f2406 	br	9a60 <_realloc_r+0x138>
    9dd0:	a8800217 	ldw	r2,8(r21)
    9dd4:	b0800415 	stw	r2,16(r22)
    9dd8:	a8800317 	ldw	r2,12(r21)
    9ddc:	b0800515 	stw	r2,20(r22)
    9de0:	31000a26 	beq	r6,r4,9e0c <_realloc_r+0x4e4>
    9de4:	b0800604 	addi	r2,r22,24
    9de8:	ad400404 	addi	r21,r21,16
    9dec:	003fa906 	br	9c94 <_realloc_r+0x36c>
    9df0:	a9000417 	ldw	r4,16(r21)
    9df4:	90800604 	addi	r2,r18,24
    9df8:	a8c00604 	addi	r3,r21,24
    9dfc:	91000415 	stw	r4,16(r18)
    9e00:	a9000517 	ldw	r4,20(r21)
    9e04:	91000515 	stw	r4,20(r18)
    9e08:	003f0406 	br	9a1c <_realloc_r+0xf4>
    9e0c:	a8c00417 	ldw	r3,16(r21)
    9e10:	ad400604 	addi	r21,r21,24
    9e14:	b0800804 	addi	r2,r22,32
    9e18:	b0c00615 	stw	r3,24(r22)
    9e1c:	a8ffff17 	ldw	r3,-4(r21)
    9e20:	b0c00715 	stw	r3,28(r22)
    9e24:	003f9b06 	br	9c94 <_realloc_r+0x36c>
    9e28:	9005883a 	mov	r2,r18
    9e2c:	003fc706 	br	9d4c <_realloc_r+0x424>
    9e30:	a80b883a 	mov	r5,r21
    9e34:	9009883a 	mov	r4,r18
    9e38:	00096a40 	call	96a4 <memmove>
    9e3c:	003fc906 	br	9d64 <_realloc_r+0x43c>
    9e40:	a8800217 	ldw	r2,8(r21)
    9e44:	b0800415 	stw	r2,16(r22)
    9e48:	a8800317 	ldw	r2,12(r21)
    9e4c:	b0800515 	stw	r2,20(r22)
    9e50:	31000726 	beq	r6,r4,9e70 <_realloc_r+0x548>
    9e54:	b0800604 	addi	r2,r22,24
    9e58:	ad400404 	addi	r21,r21,16
    9e5c:	003fbb06 	br	9d4c <_realloc_r+0x424>
    9e60:	a009883a 	mov	r4,r20
    9e64:	000b4cc0 	call	b4cc <__malloc_unlock>
    9e68:	0005883a 	mov	r2,zero
    9e6c:	003f0a06 	br	9a98 <_realloc_r+0x170>
    9e70:	a8c00417 	ldw	r3,16(r21)
    9e74:	ad400604 	addi	r21,r21,24
    9e78:	b0800804 	addi	r2,r22,32
    9e7c:	b0c00615 	stw	r3,24(r22)
    9e80:	a8ffff17 	ldw	r3,-4(r21)
    9e84:	b0c00715 	stw	r3,28(r22)
    9e88:	003fb006 	br	9d4c <_realloc_r+0x424>

00009e8c <_sbrk_r>:
    9e8c:	defffd04 	addi	sp,sp,-12
    9e90:	dc000015 	stw	r16,0(sp)
    9e94:	04000074 	movhi	r16,1
    9e98:	dc400115 	stw	r17,4(sp)
    9e9c:	84376404 	addi	r16,r16,-8816
    9ea0:	2023883a 	mov	r17,r4
    9ea4:	2809883a 	mov	r4,r5
    9ea8:	dfc00215 	stw	ra,8(sp)
    9eac:	80000015 	stw	zero,0(r16)
    9eb0:	000b6b40 	call	b6b4 <sbrk>
    9eb4:	00ffffc4 	movi	r3,-1
    9eb8:	10c00526 	beq	r2,r3,9ed0 <_sbrk_r+0x44>
    9ebc:	dfc00217 	ldw	ra,8(sp)
    9ec0:	dc400117 	ldw	r17,4(sp)
    9ec4:	dc000017 	ldw	r16,0(sp)
    9ec8:	dec00304 	addi	sp,sp,12
    9ecc:	f800283a 	ret
    9ed0:	80c00017 	ldw	r3,0(r16)
    9ed4:	183ff926 	beq	r3,zero,9ebc <_sbrk_r+0x30>
    9ed8:	88c00015 	stw	r3,0(r17)
    9edc:	003ff706 	br	9ebc <_sbrk_r+0x30>

00009ee0 <__sread>:
    9ee0:	defffe04 	addi	sp,sp,-8
    9ee4:	dc000015 	stw	r16,0(sp)
    9ee8:	2821883a 	mov	r16,r5
    9eec:	2940038f 	ldh	r5,14(r5)
    9ef0:	dfc00115 	stw	ra,4(sp)
    9ef4:	000ac200 	call	ac20 <_read_r>
    9ef8:	10000716 	blt	r2,zero,9f18 <__sread+0x38>
    9efc:	80c01417 	ldw	r3,80(r16)
    9f00:	1887883a 	add	r3,r3,r2
    9f04:	80c01415 	stw	r3,80(r16)
    9f08:	dfc00117 	ldw	ra,4(sp)
    9f0c:	dc000017 	ldw	r16,0(sp)
    9f10:	dec00204 	addi	sp,sp,8
    9f14:	f800283a 	ret
    9f18:	80c0030b 	ldhu	r3,12(r16)
    9f1c:	18fbffcc 	andi	r3,r3,61439
    9f20:	80c0030d 	sth	r3,12(r16)
    9f24:	dfc00117 	ldw	ra,4(sp)
    9f28:	dc000017 	ldw	r16,0(sp)
    9f2c:	dec00204 	addi	sp,sp,8
    9f30:	f800283a 	ret

00009f34 <__seofread>:
    9f34:	0005883a 	mov	r2,zero
    9f38:	f800283a 	ret

00009f3c <__swrite>:
    9f3c:	2880030b 	ldhu	r2,12(r5)
    9f40:	defffb04 	addi	sp,sp,-20
    9f44:	dcc00315 	stw	r19,12(sp)
    9f48:	dc800215 	stw	r18,8(sp)
    9f4c:	dc400115 	stw	r17,4(sp)
    9f50:	dc000015 	stw	r16,0(sp)
    9f54:	dfc00415 	stw	ra,16(sp)
    9f58:	10c0400c 	andi	r3,r2,256
    9f5c:	2821883a 	mov	r16,r5
    9f60:	2023883a 	mov	r17,r4
    9f64:	3025883a 	mov	r18,r6
    9f68:	3827883a 	mov	r19,r7
    9f6c:	18000526 	beq	r3,zero,9f84 <__swrite+0x48>
    9f70:	2940038f 	ldh	r5,14(r5)
    9f74:	01c00084 	movi	r7,2
    9f78:	000d883a 	mov	r6,zero
    9f7c:	000aa040 	call	aa04 <_lseek_r>
    9f80:	8080030b 	ldhu	r2,12(r16)
    9f84:	8140038f 	ldh	r5,14(r16)
    9f88:	10bbffcc 	andi	r2,r2,61439
    9f8c:	980f883a 	mov	r7,r19
    9f90:	900d883a 	mov	r6,r18
    9f94:	8809883a 	mov	r4,r17
    9f98:	8080030d 	sth	r2,12(r16)
    9f9c:	dfc00417 	ldw	ra,16(sp)
    9fa0:	dcc00317 	ldw	r19,12(sp)
    9fa4:	dc800217 	ldw	r18,8(sp)
    9fa8:	dc400117 	ldw	r17,4(sp)
    9fac:	dc000017 	ldw	r16,0(sp)
    9fb0:	dec00504 	addi	sp,sp,20
    9fb4:	000a01c1 	jmpi	a01c <_write_r>

00009fb8 <__sseek>:
    9fb8:	defffe04 	addi	sp,sp,-8
    9fbc:	dc000015 	stw	r16,0(sp)
    9fc0:	2821883a 	mov	r16,r5
    9fc4:	2940038f 	ldh	r5,14(r5)
    9fc8:	dfc00115 	stw	ra,4(sp)
    9fcc:	000aa040 	call	aa04 <_lseek_r>
    9fd0:	00ffffc4 	movi	r3,-1
    9fd4:	10c00826 	beq	r2,r3,9ff8 <__sseek+0x40>
    9fd8:	80c0030b 	ldhu	r3,12(r16)
    9fdc:	80801415 	stw	r2,80(r16)
    9fe0:	18c40014 	ori	r3,r3,4096
    9fe4:	80c0030d 	sth	r3,12(r16)
    9fe8:	dfc00117 	ldw	ra,4(sp)
    9fec:	dc000017 	ldw	r16,0(sp)
    9ff0:	dec00204 	addi	sp,sp,8
    9ff4:	f800283a 	ret
    9ff8:	80c0030b 	ldhu	r3,12(r16)
    9ffc:	18fbffcc 	andi	r3,r3,61439
    a000:	80c0030d 	sth	r3,12(r16)
    a004:	dfc00117 	ldw	ra,4(sp)
    a008:	dc000017 	ldw	r16,0(sp)
    a00c:	dec00204 	addi	sp,sp,8
    a010:	f800283a 	ret

0000a014 <__sclose>:
    a014:	2940038f 	ldh	r5,14(r5)
    a018:	000a1d01 	jmpi	a1d0 <_close_r>

0000a01c <_write_r>:
    a01c:	defffd04 	addi	sp,sp,-12
    a020:	2805883a 	mov	r2,r5
    a024:	dc000015 	stw	r16,0(sp)
    a028:	04000074 	movhi	r16,1
    a02c:	dc400115 	stw	r17,4(sp)
    a030:	300b883a 	mov	r5,r6
    a034:	84376404 	addi	r16,r16,-8816
    a038:	2023883a 	mov	r17,r4
    a03c:	380d883a 	mov	r6,r7
    a040:	1009883a 	mov	r4,r2
    a044:	dfc00215 	stw	ra,8(sp)
    a048:	80000015 	stw	zero,0(r16)
    a04c:	000b7d00 	call	b7d0 <write>
    a050:	00ffffc4 	movi	r3,-1
    a054:	10c00526 	beq	r2,r3,a06c <_write_r+0x50>
    a058:	dfc00217 	ldw	ra,8(sp)
    a05c:	dc400117 	ldw	r17,4(sp)
    a060:	dc000017 	ldw	r16,0(sp)
    a064:	dec00304 	addi	sp,sp,12
    a068:	f800283a 	ret
    a06c:	80c00017 	ldw	r3,0(r16)
    a070:	183ff926 	beq	r3,zero,a058 <_write_r+0x3c>
    a074:	88c00015 	stw	r3,0(r17)
    a078:	003ff706 	br	a058 <_write_r+0x3c>

0000a07c <__swsetup_r>:
    a07c:	00800074 	movhi	r2,1
    a080:	defffd04 	addi	sp,sp,-12
    a084:	10b4cc04 	addi	r2,r2,-11472
    a088:	dc400115 	stw	r17,4(sp)
    a08c:	2023883a 	mov	r17,r4
    a090:	11000017 	ldw	r4,0(r2)
    a094:	dc000015 	stw	r16,0(sp)
    a098:	dfc00215 	stw	ra,8(sp)
    a09c:	2821883a 	mov	r16,r5
    a0a0:	20000226 	beq	r4,zero,a0ac <__swsetup_r+0x30>
    a0a4:	20800e17 	ldw	r2,56(r4)
    a0a8:	10003126 	beq	r2,zero,a170 <__swsetup_r+0xf4>
    a0ac:	8080030b 	ldhu	r2,12(r16)
    a0b0:	10c0020c 	andi	r3,r2,8
    a0b4:	1009883a 	mov	r4,r2
    a0b8:	18000f26 	beq	r3,zero,a0f8 <__swsetup_r+0x7c>
    a0bc:	80c00417 	ldw	r3,16(r16)
    a0c0:	18001526 	beq	r3,zero,a118 <__swsetup_r+0x9c>
    a0c4:	1100004c 	andi	r4,r2,1
    a0c8:	20001c1e 	bne	r4,zero,a13c <__swsetup_r+0xc0>
    a0cc:	1080008c 	andi	r2,r2,2
    a0d0:	1000291e 	bne	r2,zero,a178 <__swsetup_r+0xfc>
    a0d4:	80800517 	ldw	r2,20(r16)
    a0d8:	80800215 	stw	r2,8(r16)
    a0dc:	18001c26 	beq	r3,zero,a150 <__swsetup_r+0xd4>
    a0e0:	0005883a 	mov	r2,zero
    a0e4:	dfc00217 	ldw	ra,8(sp)
    a0e8:	dc400117 	ldw	r17,4(sp)
    a0ec:	dc000017 	ldw	r16,0(sp)
    a0f0:	dec00304 	addi	sp,sp,12
    a0f4:	f800283a 	ret
    a0f8:	2080040c 	andi	r2,r4,16
    a0fc:	10002e26 	beq	r2,zero,a1b8 <__swsetup_r+0x13c>
    a100:	2080010c 	andi	r2,r4,4
    a104:	10001e1e 	bne	r2,zero,a180 <__swsetup_r+0x104>
    a108:	80c00417 	ldw	r3,16(r16)
    a10c:	20800214 	ori	r2,r4,8
    a110:	8080030d 	sth	r2,12(r16)
    a114:	183feb1e 	bne	r3,zero,a0c4 <__swsetup_r+0x48>
    a118:	1100a00c 	andi	r4,r2,640
    a11c:	01408004 	movi	r5,512
    a120:	217fe826 	beq	r4,r5,a0c4 <__swsetup_r+0x48>
    a124:	800b883a 	mov	r5,r16
    a128:	8809883a 	mov	r4,r17
    a12c:	000aa640 	call	aa64 <__smakebuf_r>
    a130:	8080030b 	ldhu	r2,12(r16)
    a134:	80c00417 	ldw	r3,16(r16)
    a138:	003fe206 	br	a0c4 <__swsetup_r+0x48>
    a13c:	80800517 	ldw	r2,20(r16)
    a140:	80000215 	stw	zero,8(r16)
    a144:	0085c83a 	sub	r2,zero,r2
    a148:	80800615 	stw	r2,24(r16)
    a14c:	183fe41e 	bne	r3,zero,a0e0 <__swsetup_r+0x64>
    a150:	80c0030b 	ldhu	r3,12(r16)
    a154:	0005883a 	mov	r2,zero
    a158:	1900200c 	andi	r4,r3,128
    a15c:	203fe126 	beq	r4,zero,a0e4 <__swsetup_r+0x68>
    a160:	18c01014 	ori	r3,r3,64
    a164:	80c0030d 	sth	r3,12(r16)
    a168:	00bfffc4 	movi	r2,-1
    a16c:	003fdd06 	br	a0e4 <__swsetup_r+0x68>
    a170:	00085cc0 	call	85cc <__sinit>
    a174:	003fcd06 	br	a0ac <__swsetup_r+0x30>
    a178:	0005883a 	mov	r2,zero
    a17c:	003fd606 	br	a0d8 <__swsetup_r+0x5c>
    a180:	81400c17 	ldw	r5,48(r16)
    a184:	28000626 	beq	r5,zero,a1a0 <__swsetup_r+0x124>
    a188:	80801004 	addi	r2,r16,64
    a18c:	28800326 	beq	r5,r2,a19c <__swsetup_r+0x120>
    a190:	8809883a 	mov	r4,r17
    a194:	000a6f40 	call	a6f4 <_free_r>
    a198:	8100030b 	ldhu	r4,12(r16)
    a19c:	80000c15 	stw	zero,48(r16)
    a1a0:	80c00417 	ldw	r3,16(r16)
    a1a4:	00bff6c4 	movi	r2,-37
    a1a8:	1108703a 	and	r4,r2,r4
    a1ac:	80000115 	stw	zero,4(r16)
    a1b0:	80c00015 	stw	r3,0(r16)
    a1b4:	003fd506 	br	a10c <__swsetup_r+0x90>
    a1b8:	00800244 	movi	r2,9
    a1bc:	88800015 	stw	r2,0(r17)
    a1c0:	20801014 	ori	r2,r4,64
    a1c4:	8080030d 	sth	r2,12(r16)
    a1c8:	00bfffc4 	movi	r2,-1
    a1cc:	003fc506 	br	a0e4 <__swsetup_r+0x68>

0000a1d0 <_close_r>:
    a1d0:	defffd04 	addi	sp,sp,-12
    a1d4:	dc000015 	stw	r16,0(sp)
    a1d8:	04000074 	movhi	r16,1
    a1dc:	dc400115 	stw	r17,4(sp)
    a1e0:	84376404 	addi	r16,r16,-8816
    a1e4:	2023883a 	mov	r17,r4
    a1e8:	2809883a 	mov	r4,r5
    a1ec:	dfc00215 	stw	ra,8(sp)
    a1f0:	80000015 	stw	zero,0(r16)
    a1f4:	000af480 	call	af48 <close>
    a1f8:	00ffffc4 	movi	r3,-1
    a1fc:	10c00526 	beq	r2,r3,a214 <_close_r+0x44>
    a200:	dfc00217 	ldw	ra,8(sp)
    a204:	dc400117 	ldw	r17,4(sp)
    a208:	dc000017 	ldw	r16,0(sp)
    a20c:	dec00304 	addi	sp,sp,12
    a210:	f800283a 	ret
    a214:	80c00017 	ldw	r3,0(r16)
    a218:	183ff926 	beq	r3,zero,a200 <_close_r+0x30>
    a21c:	88c00015 	stw	r3,0(r17)
    a220:	003ff706 	br	a200 <_close_r+0x30>

0000a224 <_fclose_r>:
    a224:	28003926 	beq	r5,zero,a30c <_fclose_r+0xe8>
    a228:	defffc04 	addi	sp,sp,-16
    a22c:	dc400115 	stw	r17,4(sp)
    a230:	dc000015 	stw	r16,0(sp)
    a234:	dfc00315 	stw	ra,12(sp)
    a238:	dc800215 	stw	r18,8(sp)
    a23c:	2023883a 	mov	r17,r4
    a240:	2821883a 	mov	r16,r5
    a244:	20000226 	beq	r4,zero,a250 <_fclose_r+0x2c>
    a248:	20800e17 	ldw	r2,56(r4)
    a24c:	10002726 	beq	r2,zero,a2ec <_fclose_r+0xc8>
    a250:	8080030f 	ldh	r2,12(r16)
    a254:	1000071e 	bne	r2,zero,a274 <_fclose_r+0x50>
    a258:	0005883a 	mov	r2,zero
    a25c:	dfc00317 	ldw	ra,12(sp)
    a260:	dc800217 	ldw	r18,8(sp)
    a264:	dc400117 	ldw	r17,4(sp)
    a268:	dc000017 	ldw	r16,0(sp)
    a26c:	dec00404 	addi	sp,sp,16
    a270:	f800283a 	ret
    a274:	800b883a 	mov	r5,r16
    a278:	8809883a 	mov	r4,r17
    a27c:	000a3280 	call	a328 <__sflush_r>
    a280:	1025883a 	mov	r18,r2
    a284:	80800b17 	ldw	r2,44(r16)
    a288:	10000426 	beq	r2,zero,a29c <_fclose_r+0x78>
    a28c:	81400717 	ldw	r5,28(r16)
    a290:	8809883a 	mov	r4,r17
    a294:	103ee83a 	callr	r2
    a298:	10001616 	blt	r2,zero,a2f4 <_fclose_r+0xd0>
    a29c:	8080030b 	ldhu	r2,12(r16)
    a2a0:	1080200c 	andi	r2,r2,128
    a2a4:	1000151e 	bne	r2,zero,a2fc <_fclose_r+0xd8>
    a2a8:	81400c17 	ldw	r5,48(r16)
    a2ac:	28000526 	beq	r5,zero,a2c4 <_fclose_r+0xa0>
    a2b0:	80801004 	addi	r2,r16,64
    a2b4:	28800226 	beq	r5,r2,a2c0 <_fclose_r+0x9c>
    a2b8:	8809883a 	mov	r4,r17
    a2bc:	000a6f40 	call	a6f4 <_free_r>
    a2c0:	80000c15 	stw	zero,48(r16)
    a2c4:	81401117 	ldw	r5,68(r16)
    a2c8:	28000326 	beq	r5,zero,a2d8 <_fclose_r+0xb4>
    a2cc:	8809883a 	mov	r4,r17
    a2d0:	000a6f40 	call	a6f4 <_free_r>
    a2d4:	80001115 	stw	zero,68(r16)
    a2d8:	00085dc0 	call	85dc <__sfp_lock_acquire>
    a2dc:	8000030d 	sth	zero,12(r16)
    a2e0:	00085e00 	call	85e0 <__sfp_lock_release>
    a2e4:	9005883a 	mov	r2,r18
    a2e8:	003fdc06 	br	a25c <_fclose_r+0x38>
    a2ec:	00085cc0 	call	85cc <__sinit>
    a2f0:	003fd706 	br	a250 <_fclose_r+0x2c>
    a2f4:	04bfffc4 	movi	r18,-1
    a2f8:	003fe806 	br	a29c <_fclose_r+0x78>
    a2fc:	81400417 	ldw	r5,16(r16)
    a300:	8809883a 	mov	r4,r17
    a304:	000a6f40 	call	a6f4 <_free_r>
    a308:	003fe706 	br	a2a8 <_fclose_r+0x84>
    a30c:	0005883a 	mov	r2,zero
    a310:	f800283a 	ret

0000a314 <fclose>:
    a314:	00800074 	movhi	r2,1
    a318:	10b4cc04 	addi	r2,r2,-11472
    a31c:	200b883a 	mov	r5,r4
    a320:	11000017 	ldw	r4,0(r2)
    a324:	000a2241 	jmpi	a224 <_fclose_r>

0000a328 <__sflush_r>:
    a328:	2880030b 	ldhu	r2,12(r5)
    a32c:	defffb04 	addi	sp,sp,-20
    a330:	dcc00315 	stw	r19,12(sp)
    a334:	dc400115 	stw	r17,4(sp)
    a338:	dfc00415 	stw	ra,16(sp)
    a33c:	dc800215 	stw	r18,8(sp)
    a340:	dc000015 	stw	r16,0(sp)
    a344:	10c0020c 	andi	r3,r2,8
    a348:	2823883a 	mov	r17,r5
    a34c:	2027883a 	mov	r19,r4
    a350:	1800311e 	bne	r3,zero,a418 <__sflush_r+0xf0>
    a354:	28c00117 	ldw	r3,4(r5)
    a358:	10820014 	ori	r2,r2,2048
    a35c:	2880030d 	sth	r2,12(r5)
    a360:	00c04b0e 	bge	zero,r3,a490 <__sflush_r+0x168>
    a364:	8a000a17 	ldw	r8,40(r17)
    a368:	40002326 	beq	r8,zero,a3f8 <__sflush_r+0xd0>
    a36c:	9c000017 	ldw	r16,0(r19)
    a370:	10c4000c 	andi	r3,r2,4096
    a374:	98000015 	stw	zero,0(r19)
    a378:	18004826 	beq	r3,zero,a49c <__sflush_r+0x174>
    a37c:	89801417 	ldw	r6,80(r17)
    a380:	10c0010c 	andi	r3,r2,4
    a384:	18000626 	beq	r3,zero,a3a0 <__sflush_r+0x78>
    a388:	88c00117 	ldw	r3,4(r17)
    a38c:	88800c17 	ldw	r2,48(r17)
    a390:	30cdc83a 	sub	r6,r6,r3
    a394:	10000226 	beq	r2,zero,a3a0 <__sflush_r+0x78>
    a398:	88800f17 	ldw	r2,60(r17)
    a39c:	308dc83a 	sub	r6,r6,r2
    a3a0:	89400717 	ldw	r5,28(r17)
    a3a4:	000f883a 	mov	r7,zero
    a3a8:	9809883a 	mov	r4,r19
    a3ac:	403ee83a 	callr	r8
    a3b0:	00ffffc4 	movi	r3,-1
    a3b4:	10c04426 	beq	r2,r3,a4c8 <__sflush_r+0x1a0>
    a3b8:	88c0030b 	ldhu	r3,12(r17)
    a3bc:	89000417 	ldw	r4,16(r17)
    a3c0:	88000115 	stw	zero,4(r17)
    a3c4:	197dffcc 	andi	r5,r3,63487
    a3c8:	8940030d 	sth	r5,12(r17)
    a3cc:	89000015 	stw	r4,0(r17)
    a3d0:	18c4000c 	andi	r3,r3,4096
    a3d4:	18002c1e 	bne	r3,zero,a488 <__sflush_r+0x160>
    a3d8:	89400c17 	ldw	r5,48(r17)
    a3dc:	9c000015 	stw	r16,0(r19)
    a3e0:	28000526 	beq	r5,zero,a3f8 <__sflush_r+0xd0>
    a3e4:	88801004 	addi	r2,r17,64
    a3e8:	28800226 	beq	r5,r2,a3f4 <__sflush_r+0xcc>
    a3ec:	9809883a 	mov	r4,r19
    a3f0:	000a6f40 	call	a6f4 <_free_r>
    a3f4:	88000c15 	stw	zero,48(r17)
    a3f8:	0005883a 	mov	r2,zero
    a3fc:	dfc00417 	ldw	ra,16(sp)
    a400:	dcc00317 	ldw	r19,12(sp)
    a404:	dc800217 	ldw	r18,8(sp)
    a408:	dc400117 	ldw	r17,4(sp)
    a40c:	dc000017 	ldw	r16,0(sp)
    a410:	dec00504 	addi	sp,sp,20
    a414:	f800283a 	ret
    a418:	2c800417 	ldw	r18,16(r5)
    a41c:	903ff626 	beq	r18,zero,a3f8 <__sflush_r+0xd0>
    a420:	2c000017 	ldw	r16,0(r5)
    a424:	108000cc 	andi	r2,r2,3
    a428:	2c800015 	stw	r18,0(r5)
    a42c:	84a1c83a 	sub	r16,r16,r18
    a430:	1000131e 	bne	r2,zero,a480 <__sflush_r+0x158>
    a434:	28800517 	ldw	r2,20(r5)
    a438:	88800215 	stw	r2,8(r17)
    a43c:	04000316 	blt	zero,r16,a44c <__sflush_r+0x124>
    a440:	003fed06 	br	a3f8 <__sflush_r+0xd0>
    a444:	90a5883a 	add	r18,r18,r2
    a448:	043feb0e 	bge	zero,r16,a3f8 <__sflush_r+0xd0>
    a44c:	88800917 	ldw	r2,36(r17)
    a450:	89400717 	ldw	r5,28(r17)
    a454:	800f883a 	mov	r7,r16
    a458:	900d883a 	mov	r6,r18
    a45c:	9809883a 	mov	r4,r19
    a460:	103ee83a 	callr	r2
    a464:	80a1c83a 	sub	r16,r16,r2
    a468:	00bff616 	blt	zero,r2,a444 <__sflush_r+0x11c>
    a46c:	88c0030b 	ldhu	r3,12(r17)
    a470:	00bfffc4 	movi	r2,-1
    a474:	18c01014 	ori	r3,r3,64
    a478:	88c0030d 	sth	r3,12(r17)
    a47c:	003fdf06 	br	a3fc <__sflush_r+0xd4>
    a480:	0005883a 	mov	r2,zero
    a484:	003fec06 	br	a438 <__sflush_r+0x110>
    a488:	88801415 	stw	r2,80(r17)
    a48c:	003fd206 	br	a3d8 <__sflush_r+0xb0>
    a490:	28c00f17 	ldw	r3,60(r5)
    a494:	00ffb316 	blt	zero,r3,a364 <__sflush_r+0x3c>
    a498:	003fd706 	br	a3f8 <__sflush_r+0xd0>
    a49c:	89400717 	ldw	r5,28(r17)
    a4a0:	000d883a 	mov	r6,zero
    a4a4:	01c00044 	movi	r7,1
    a4a8:	9809883a 	mov	r4,r19
    a4ac:	403ee83a 	callr	r8
    a4b0:	100d883a 	mov	r6,r2
    a4b4:	00bfffc4 	movi	r2,-1
    a4b8:	30801426 	beq	r6,r2,a50c <__sflush_r+0x1e4>
    a4bc:	8880030b 	ldhu	r2,12(r17)
    a4c0:	8a000a17 	ldw	r8,40(r17)
    a4c4:	003fae06 	br	a380 <__sflush_r+0x58>
    a4c8:	98c00017 	ldw	r3,0(r19)
    a4cc:	183fba26 	beq	r3,zero,a3b8 <__sflush_r+0x90>
    a4d0:	01000744 	movi	r4,29
    a4d4:	19000626 	beq	r3,r4,a4f0 <__sflush_r+0x1c8>
    a4d8:	01000584 	movi	r4,22
    a4dc:	19000426 	beq	r3,r4,a4f0 <__sflush_r+0x1c8>
    a4e0:	88c0030b 	ldhu	r3,12(r17)
    a4e4:	18c01014 	ori	r3,r3,64
    a4e8:	88c0030d 	sth	r3,12(r17)
    a4ec:	003fc306 	br	a3fc <__sflush_r+0xd4>
    a4f0:	8880030b 	ldhu	r2,12(r17)
    a4f4:	88c00417 	ldw	r3,16(r17)
    a4f8:	88000115 	stw	zero,4(r17)
    a4fc:	10bdffcc 	andi	r2,r2,63487
    a500:	8880030d 	sth	r2,12(r17)
    a504:	88c00015 	stw	r3,0(r17)
    a508:	003fb306 	br	a3d8 <__sflush_r+0xb0>
    a50c:	98800017 	ldw	r2,0(r19)
    a510:	103fea26 	beq	r2,zero,a4bc <__sflush_r+0x194>
    a514:	00c00744 	movi	r3,29
    a518:	10c00226 	beq	r2,r3,a524 <__sflush_r+0x1fc>
    a51c:	00c00584 	movi	r3,22
    a520:	10c0031e 	bne	r2,r3,a530 <__sflush_r+0x208>
    a524:	9c000015 	stw	r16,0(r19)
    a528:	0005883a 	mov	r2,zero
    a52c:	003fb306 	br	a3fc <__sflush_r+0xd4>
    a530:	88c0030b 	ldhu	r3,12(r17)
    a534:	3005883a 	mov	r2,r6
    a538:	18c01014 	ori	r3,r3,64
    a53c:	88c0030d 	sth	r3,12(r17)
    a540:	003fae06 	br	a3fc <__sflush_r+0xd4>

0000a544 <_fflush_r>:
    a544:	defffd04 	addi	sp,sp,-12
    a548:	dc000115 	stw	r16,4(sp)
    a54c:	dfc00215 	stw	ra,8(sp)
    a550:	2021883a 	mov	r16,r4
    a554:	20000226 	beq	r4,zero,a560 <_fflush_r+0x1c>
    a558:	20800e17 	ldw	r2,56(r4)
    a55c:	10000c26 	beq	r2,zero,a590 <_fflush_r+0x4c>
    a560:	2880030f 	ldh	r2,12(r5)
    a564:	1000051e 	bne	r2,zero,a57c <_fflush_r+0x38>
    a568:	0005883a 	mov	r2,zero
    a56c:	dfc00217 	ldw	ra,8(sp)
    a570:	dc000117 	ldw	r16,4(sp)
    a574:	dec00304 	addi	sp,sp,12
    a578:	f800283a 	ret
    a57c:	8009883a 	mov	r4,r16
    a580:	dfc00217 	ldw	ra,8(sp)
    a584:	dc000117 	ldw	r16,4(sp)
    a588:	dec00304 	addi	sp,sp,12
    a58c:	000a3281 	jmpi	a328 <__sflush_r>
    a590:	d9400015 	stw	r5,0(sp)
    a594:	00085cc0 	call	85cc <__sinit>
    a598:	d9400017 	ldw	r5,0(sp)
    a59c:	003ff006 	br	a560 <_fflush_r+0x1c>

0000a5a0 <fflush>:
    a5a0:	20000526 	beq	r4,zero,a5b8 <fflush+0x18>
    a5a4:	00800074 	movhi	r2,1
    a5a8:	10b4cc04 	addi	r2,r2,-11472
    a5ac:	200b883a 	mov	r5,r4
    a5b0:	11000017 	ldw	r4,0(r2)
    a5b4:	000a5441 	jmpi	a544 <_fflush_r>
    a5b8:	00800074 	movhi	r2,1
    a5bc:	10b4cb04 	addi	r2,r2,-11476
    a5c0:	11000017 	ldw	r4,0(r2)
    a5c4:	01400074 	movhi	r5,1
    a5c8:	29695104 	addi	r5,r5,-23228
    a5cc:	0008ba81 	jmpi	8ba8 <_fwalk_reent>

0000a5d0 <_malloc_trim_r>:
    a5d0:	defffb04 	addi	sp,sp,-20
    a5d4:	dcc00315 	stw	r19,12(sp)
    a5d8:	04c00074 	movhi	r19,1
    a5dc:	dc800215 	stw	r18,8(sp)
    a5e0:	dc400115 	stw	r17,4(sp)
    a5e4:	dc000015 	stw	r16,0(sp)
    a5e8:	dfc00415 	stw	ra,16(sp)
    a5ec:	2821883a 	mov	r16,r5
    a5f0:	9cf35404 	addi	r19,r19,-12976
    a5f4:	2025883a 	mov	r18,r4
    a5f8:	000b4a80 	call	b4a8 <__malloc_lock>
    a5fc:	98800217 	ldw	r2,8(r19)
    a600:	14400117 	ldw	r17,4(r2)
    a604:	00bfff04 	movi	r2,-4
    a608:	88a2703a 	and	r17,r17,r2
    a60c:	8c21c83a 	sub	r16,r17,r16
    a610:	8403fbc4 	addi	r16,r16,4079
    a614:	8020d33a 	srli	r16,r16,12
    a618:	0083ffc4 	movi	r2,4095
    a61c:	843fffc4 	addi	r16,r16,-1
    a620:	8020933a 	slli	r16,r16,12
    a624:	1400060e 	bge	r2,r16,a640 <_malloc_trim_r+0x70>
    a628:	000b883a 	mov	r5,zero
    a62c:	9009883a 	mov	r4,r18
    a630:	0009e8c0 	call	9e8c <_sbrk_r>
    a634:	98c00217 	ldw	r3,8(r19)
    a638:	1c47883a 	add	r3,r3,r17
    a63c:	10c00a26 	beq	r2,r3,a668 <_malloc_trim_r+0x98>
    a640:	9009883a 	mov	r4,r18
    a644:	000b4cc0 	call	b4cc <__malloc_unlock>
    a648:	0005883a 	mov	r2,zero
    a64c:	dfc00417 	ldw	ra,16(sp)
    a650:	dcc00317 	ldw	r19,12(sp)
    a654:	dc800217 	ldw	r18,8(sp)
    a658:	dc400117 	ldw	r17,4(sp)
    a65c:	dc000017 	ldw	r16,0(sp)
    a660:	dec00504 	addi	sp,sp,20
    a664:	f800283a 	ret
    a668:	040bc83a 	sub	r5,zero,r16
    a66c:	9009883a 	mov	r4,r18
    a670:	0009e8c0 	call	9e8c <_sbrk_r>
    a674:	00ffffc4 	movi	r3,-1
    a678:	10c00d26 	beq	r2,r3,a6b0 <_malloc_trim_r+0xe0>
    a67c:	00c00074 	movhi	r3,1
    a680:	18f76804 	addi	r3,r3,-8800
    a684:	18800017 	ldw	r2,0(r3)
    a688:	99000217 	ldw	r4,8(r19)
    a68c:	8c23c83a 	sub	r17,r17,r16
    a690:	8c400054 	ori	r17,r17,1
    a694:	1421c83a 	sub	r16,r2,r16
    a698:	24400115 	stw	r17,4(r4)
    a69c:	9009883a 	mov	r4,r18
    a6a0:	1c000015 	stw	r16,0(r3)
    a6a4:	000b4cc0 	call	b4cc <__malloc_unlock>
    a6a8:	00800044 	movi	r2,1
    a6ac:	003fe706 	br	a64c <_malloc_trim_r+0x7c>
    a6b0:	000b883a 	mov	r5,zero
    a6b4:	9009883a 	mov	r4,r18
    a6b8:	0009e8c0 	call	9e8c <_sbrk_r>
    a6bc:	99000217 	ldw	r4,8(r19)
    a6c0:	014003c4 	movi	r5,15
    a6c4:	1107c83a 	sub	r3,r2,r4
    a6c8:	28ffdd0e 	bge	r5,r3,a640 <_malloc_trim_r+0x70>
    a6cc:	01400074 	movhi	r5,1
    a6d0:	2974cd04 	addi	r5,r5,-11468
    a6d4:	29400017 	ldw	r5,0(r5)
    a6d8:	18c00054 	ori	r3,r3,1
    a6dc:	20c00115 	stw	r3,4(r4)
    a6e0:	00c00074 	movhi	r3,1
    a6e4:	1145c83a 	sub	r2,r2,r5
    a6e8:	18f76804 	addi	r3,r3,-8800
    a6ec:	18800015 	stw	r2,0(r3)
    a6f0:	003fd306 	br	a640 <_malloc_trim_r+0x70>

0000a6f4 <_free_r>:
    a6f4:	28004126 	beq	r5,zero,a7fc <_free_r+0x108>
    a6f8:	defffd04 	addi	sp,sp,-12
    a6fc:	dc400115 	stw	r17,4(sp)
    a700:	dc000015 	stw	r16,0(sp)
    a704:	2023883a 	mov	r17,r4
    a708:	2821883a 	mov	r16,r5
    a70c:	dfc00215 	stw	ra,8(sp)
    a710:	000b4a80 	call	b4a8 <__malloc_lock>
    a714:	81ffff17 	ldw	r7,-4(r16)
    a718:	00bfff84 	movi	r2,-2
    a71c:	01000074 	movhi	r4,1
    a720:	81bffe04 	addi	r6,r16,-8
    a724:	3884703a 	and	r2,r7,r2
    a728:	21335404 	addi	r4,r4,-12976
    a72c:	308b883a 	add	r5,r6,r2
    a730:	2a400117 	ldw	r9,4(r5)
    a734:	22000217 	ldw	r8,8(r4)
    a738:	00ffff04 	movi	r3,-4
    a73c:	48c6703a 	and	r3,r9,r3
    a740:	2a005726 	beq	r5,r8,a8a0 <_free_r+0x1ac>
    a744:	28c00115 	stw	r3,4(r5)
    a748:	39c0004c 	andi	r7,r7,1
    a74c:	3800091e 	bne	r7,zero,a774 <_free_r+0x80>
    a750:	823ffe17 	ldw	r8,-8(r16)
    a754:	22400204 	addi	r9,r4,8
    a758:	320dc83a 	sub	r6,r6,r8
    a75c:	31c00217 	ldw	r7,8(r6)
    a760:	1205883a 	add	r2,r2,r8
    a764:	3a406526 	beq	r7,r9,a8fc <_free_r+0x208>
    a768:	32000317 	ldw	r8,12(r6)
    a76c:	3a000315 	stw	r8,12(r7)
    a770:	41c00215 	stw	r7,8(r8)
    a774:	28cf883a 	add	r7,r5,r3
    a778:	39c00117 	ldw	r7,4(r7)
    a77c:	39c0004c 	andi	r7,r7,1
    a780:	38003a26 	beq	r7,zero,a86c <_free_r+0x178>
    a784:	10c00054 	ori	r3,r2,1
    a788:	30c00115 	stw	r3,4(r6)
    a78c:	3087883a 	add	r3,r6,r2
    a790:	18800015 	stw	r2,0(r3)
    a794:	00c07fc4 	movi	r3,511
    a798:	18801936 	bltu	r3,r2,a800 <_free_r+0x10c>
    a79c:	1004d0fa 	srli	r2,r2,3
    a7a0:	01c00044 	movi	r7,1
    a7a4:	21400117 	ldw	r5,4(r4)
    a7a8:	10c00044 	addi	r3,r2,1
    a7ac:	18c7883a 	add	r3,r3,r3
    a7b0:	1005d0ba 	srai	r2,r2,2
    a7b4:	18c7883a 	add	r3,r3,r3
    a7b8:	18c7883a 	add	r3,r3,r3
    a7bc:	1907883a 	add	r3,r3,r4
    a7c0:	3884983a 	sll	r2,r7,r2
    a7c4:	19c00017 	ldw	r7,0(r3)
    a7c8:	1a3ffe04 	addi	r8,r3,-8
    a7cc:	1144b03a 	or	r2,r2,r5
    a7d0:	32000315 	stw	r8,12(r6)
    a7d4:	31c00215 	stw	r7,8(r6)
    a7d8:	20800115 	stw	r2,4(r4)
    a7dc:	19800015 	stw	r6,0(r3)
    a7e0:	39800315 	stw	r6,12(r7)
    a7e4:	8809883a 	mov	r4,r17
    a7e8:	dfc00217 	ldw	ra,8(sp)
    a7ec:	dc400117 	ldw	r17,4(sp)
    a7f0:	dc000017 	ldw	r16,0(sp)
    a7f4:	dec00304 	addi	sp,sp,12
    a7f8:	000b4cc1 	jmpi	b4cc <__malloc_unlock>
    a7fc:	f800283a 	ret
    a800:	100ad27a 	srli	r5,r2,9
    a804:	00c00104 	movi	r3,4
    a808:	19404a36 	bltu	r3,r5,a934 <_free_r+0x240>
    a80c:	100ad1ba 	srli	r5,r2,6
    a810:	28c00e44 	addi	r3,r5,57
    a814:	18c7883a 	add	r3,r3,r3
    a818:	29400e04 	addi	r5,r5,56
    a81c:	18c7883a 	add	r3,r3,r3
    a820:	18c7883a 	add	r3,r3,r3
    a824:	1909883a 	add	r4,r3,r4
    a828:	20c00017 	ldw	r3,0(r4)
    a82c:	01c00074 	movhi	r7,1
    a830:	213ffe04 	addi	r4,r4,-8
    a834:	39f35404 	addi	r7,r7,-12976
    a838:	20c04426 	beq	r4,r3,a94c <_free_r+0x258>
    a83c:	01ffff04 	movi	r7,-4
    a840:	19400117 	ldw	r5,4(r3)
    a844:	29ca703a 	and	r5,r5,r7
    a848:	1140022e 	bgeu	r2,r5,a854 <_free_r+0x160>
    a84c:	18c00217 	ldw	r3,8(r3)
    a850:	20fffb1e 	bne	r4,r3,a840 <_free_r+0x14c>
    a854:	19000317 	ldw	r4,12(r3)
    a858:	31000315 	stw	r4,12(r6)
    a85c:	30c00215 	stw	r3,8(r6)
    a860:	21800215 	stw	r6,8(r4)
    a864:	19800315 	stw	r6,12(r3)
    a868:	003fde06 	br	a7e4 <_free_r+0xf0>
    a86c:	29c00217 	ldw	r7,8(r5)
    a870:	10c5883a 	add	r2,r2,r3
    a874:	00c00074 	movhi	r3,1
    a878:	18f35604 	addi	r3,r3,-12968
    a87c:	38c03b26 	beq	r7,r3,a96c <_free_r+0x278>
    a880:	2a000317 	ldw	r8,12(r5)
    a884:	11400054 	ori	r5,r2,1
    a888:	3087883a 	add	r3,r6,r2
    a88c:	3a000315 	stw	r8,12(r7)
    a890:	41c00215 	stw	r7,8(r8)
    a894:	31400115 	stw	r5,4(r6)
    a898:	18800015 	stw	r2,0(r3)
    a89c:	003fbd06 	br	a794 <_free_r+0xa0>
    a8a0:	39c0004c 	andi	r7,r7,1
    a8a4:	10c5883a 	add	r2,r2,r3
    a8a8:	3800071e 	bne	r7,zero,a8c8 <_free_r+0x1d4>
    a8ac:	81fffe17 	ldw	r7,-8(r16)
    a8b0:	31cdc83a 	sub	r6,r6,r7
    a8b4:	30c00317 	ldw	r3,12(r6)
    a8b8:	31400217 	ldw	r5,8(r6)
    a8bc:	11c5883a 	add	r2,r2,r7
    a8c0:	28c00315 	stw	r3,12(r5)
    a8c4:	19400215 	stw	r5,8(r3)
    a8c8:	10c00054 	ori	r3,r2,1
    a8cc:	30c00115 	stw	r3,4(r6)
    a8d0:	00c00074 	movhi	r3,1
    a8d4:	18f4ce04 	addi	r3,r3,-11464
    a8d8:	18c00017 	ldw	r3,0(r3)
    a8dc:	21800215 	stw	r6,8(r4)
    a8e0:	10ffc036 	bltu	r2,r3,a7e4 <_free_r+0xf0>
    a8e4:	00800074 	movhi	r2,1
    a8e8:	10b76304 	addi	r2,r2,-8820
    a8ec:	11400017 	ldw	r5,0(r2)
    a8f0:	8809883a 	mov	r4,r17
    a8f4:	000a5d00 	call	a5d0 <_malloc_trim_r>
    a8f8:	003fba06 	br	a7e4 <_free_r+0xf0>
    a8fc:	28c9883a 	add	r4,r5,r3
    a900:	21000117 	ldw	r4,4(r4)
    a904:	2100004c 	andi	r4,r4,1
    a908:	2000391e 	bne	r4,zero,a9f0 <_free_r+0x2fc>
    a90c:	29c00217 	ldw	r7,8(r5)
    a910:	29000317 	ldw	r4,12(r5)
    a914:	1885883a 	add	r2,r3,r2
    a918:	10c00054 	ori	r3,r2,1
    a91c:	39000315 	stw	r4,12(r7)
    a920:	21c00215 	stw	r7,8(r4)
    a924:	30c00115 	stw	r3,4(r6)
    a928:	308d883a 	add	r6,r6,r2
    a92c:	30800015 	stw	r2,0(r6)
    a930:	003fac06 	br	a7e4 <_free_r+0xf0>
    a934:	00c00504 	movi	r3,20
    a938:	19401536 	bltu	r3,r5,a990 <_free_r+0x29c>
    a93c:	28c01704 	addi	r3,r5,92
    a940:	18c7883a 	add	r3,r3,r3
    a944:	294016c4 	addi	r5,r5,91
    a948:	003fb406 	br	a81c <_free_r+0x128>
    a94c:	280bd0ba 	srai	r5,r5,2
    a950:	00c00044 	movi	r3,1
    a954:	38800117 	ldw	r2,4(r7)
    a958:	194a983a 	sll	r5,r3,r5
    a95c:	2007883a 	mov	r3,r4
    a960:	2884b03a 	or	r2,r5,r2
    a964:	38800115 	stw	r2,4(r7)
    a968:	003fbb06 	br	a858 <_free_r+0x164>
    a96c:	21800515 	stw	r6,20(r4)
    a970:	21800415 	stw	r6,16(r4)
    a974:	10c00054 	ori	r3,r2,1
    a978:	31c00315 	stw	r7,12(r6)
    a97c:	31c00215 	stw	r7,8(r6)
    a980:	30c00115 	stw	r3,4(r6)
    a984:	308d883a 	add	r6,r6,r2
    a988:	30800015 	stw	r2,0(r6)
    a98c:	003f9506 	br	a7e4 <_free_r+0xf0>
    a990:	00c01504 	movi	r3,84
    a994:	19400536 	bltu	r3,r5,a9ac <_free_r+0x2b8>
    a998:	100ad33a 	srli	r5,r2,12
    a99c:	28c01bc4 	addi	r3,r5,111
    a9a0:	18c7883a 	add	r3,r3,r3
    a9a4:	29401b84 	addi	r5,r5,110
    a9a8:	003f9c06 	br	a81c <_free_r+0x128>
    a9ac:	00c05504 	movi	r3,340
    a9b0:	19400536 	bltu	r3,r5,a9c8 <_free_r+0x2d4>
    a9b4:	100ad3fa 	srli	r5,r2,15
    a9b8:	28c01e04 	addi	r3,r5,120
    a9bc:	18c7883a 	add	r3,r3,r3
    a9c0:	29401dc4 	addi	r5,r5,119
    a9c4:	003f9506 	br	a81c <_free_r+0x128>
    a9c8:	00c15504 	movi	r3,1364
    a9cc:	19400536 	bltu	r3,r5,a9e4 <_free_r+0x2f0>
    a9d0:	100ad4ba 	srli	r5,r2,18
    a9d4:	28c01f44 	addi	r3,r5,125
    a9d8:	18c7883a 	add	r3,r3,r3
    a9dc:	29401f04 	addi	r5,r5,124
    a9e0:	003f8e06 	br	a81c <_free_r+0x128>
    a9e4:	00c03f84 	movi	r3,254
    a9e8:	01401f84 	movi	r5,126
    a9ec:	003f8b06 	br	a81c <_free_r+0x128>
    a9f0:	10c00054 	ori	r3,r2,1
    a9f4:	30c00115 	stw	r3,4(r6)
    a9f8:	308d883a 	add	r6,r6,r2
    a9fc:	30800015 	stw	r2,0(r6)
    aa00:	003f7806 	br	a7e4 <_free_r+0xf0>

0000aa04 <_lseek_r>:
    aa04:	defffd04 	addi	sp,sp,-12
    aa08:	2805883a 	mov	r2,r5
    aa0c:	dc000015 	stw	r16,0(sp)
    aa10:	04000074 	movhi	r16,1
    aa14:	dc400115 	stw	r17,4(sp)
    aa18:	300b883a 	mov	r5,r6
    aa1c:	84376404 	addi	r16,r16,-8816
    aa20:	2023883a 	mov	r17,r4
    aa24:	380d883a 	mov	r6,r7
    aa28:	1009883a 	mov	r4,r2
    aa2c:	dfc00215 	stw	ra,8(sp)
    aa30:	80000015 	stw	zero,0(r16)
    aa34:	000b3500 	call	b350 <lseek>
    aa38:	00ffffc4 	movi	r3,-1
    aa3c:	10c00526 	beq	r2,r3,aa54 <_lseek_r+0x50>
    aa40:	dfc00217 	ldw	ra,8(sp)
    aa44:	dc400117 	ldw	r17,4(sp)
    aa48:	dc000017 	ldw	r16,0(sp)
    aa4c:	dec00304 	addi	sp,sp,12
    aa50:	f800283a 	ret
    aa54:	80c00017 	ldw	r3,0(r16)
    aa58:	183ff926 	beq	r3,zero,aa40 <_lseek_r+0x3c>
    aa5c:	88c00015 	stw	r3,0(r17)
    aa60:	003ff706 	br	aa40 <_lseek_r+0x3c>

0000aa64 <__smakebuf_r>:
    aa64:	2880030b 	ldhu	r2,12(r5)
    aa68:	10c0008c 	andi	r3,r2,2
    aa6c:	1800411e 	bne	r3,zero,ab74 <__smakebuf_r+0x110>
    aa70:	deffec04 	addi	sp,sp,-80
    aa74:	dc000f15 	stw	r16,60(sp)
    aa78:	2821883a 	mov	r16,r5
    aa7c:	2940038f 	ldh	r5,14(r5)
    aa80:	dc401015 	stw	r17,64(sp)
    aa84:	dfc01315 	stw	ra,76(sp)
    aa88:	dcc01215 	stw	r19,72(sp)
    aa8c:	dc801115 	stw	r18,68(sp)
    aa90:	2023883a 	mov	r17,r4
    aa94:	28001c16 	blt	r5,zero,ab08 <__smakebuf_r+0xa4>
    aa98:	d80d883a 	mov	r6,sp
    aa9c:	000ac800 	call	ac80 <_fstat_r>
    aaa0:	10001816 	blt	r2,zero,ab04 <__smakebuf_r+0xa0>
    aaa4:	d8800117 	ldw	r2,4(sp)
    aaa8:	00e00014 	movui	r3,32768
    aaac:	10bc000c 	andi	r2,r2,61440
    aab0:	14c80020 	cmpeqi	r19,r2,8192
    aab4:	10c03726 	beq	r2,r3,ab94 <__smakebuf_r+0x130>
    aab8:	80c0030b 	ldhu	r3,12(r16)
    aabc:	18c20014 	ori	r3,r3,2048
    aac0:	80c0030d 	sth	r3,12(r16)
    aac4:	00c80004 	movi	r3,8192
    aac8:	10c0521e 	bne	r2,r3,ac14 <__smakebuf_r+0x1b0>
    aacc:	8140038f 	ldh	r5,14(r16)
    aad0:	8809883a 	mov	r4,r17
    aad4:	000acdc0 	call	acdc <_isatty_r>
    aad8:	10004c26 	beq	r2,zero,ac0c <__smakebuf_r+0x1a8>
    aadc:	8080030b 	ldhu	r2,12(r16)
    aae0:	80c010c4 	addi	r3,r16,67
    aae4:	80c00015 	stw	r3,0(r16)
    aae8:	10800054 	ori	r2,r2,1
    aaec:	8080030d 	sth	r2,12(r16)
    aaf0:	00800044 	movi	r2,1
    aaf4:	80c00415 	stw	r3,16(r16)
    aaf8:	80800515 	stw	r2,20(r16)
    aafc:	04810004 	movi	r18,1024
    ab00:	00000706 	br	ab20 <__smakebuf_r+0xbc>
    ab04:	8080030b 	ldhu	r2,12(r16)
    ab08:	10c0200c 	andi	r3,r2,128
    ab0c:	18001f1e 	bne	r3,zero,ab8c <__smakebuf_r+0x128>
    ab10:	04810004 	movi	r18,1024
    ab14:	10820014 	ori	r2,r2,2048
    ab18:	8080030d 	sth	r2,12(r16)
    ab1c:	0027883a 	mov	r19,zero
    ab20:	900b883a 	mov	r5,r18
    ab24:	8809883a 	mov	r4,r17
    ab28:	0008c6c0 	call	8c6c <_malloc_r>
    ab2c:	10002c26 	beq	r2,zero,abe0 <__smakebuf_r+0x17c>
    ab30:	80c0030b 	ldhu	r3,12(r16)
    ab34:	01000074 	movhi	r4,1
    ab38:	21209d04 	addi	r4,r4,-32140
    ab3c:	89000f15 	stw	r4,60(r17)
    ab40:	18c02014 	ori	r3,r3,128
    ab44:	80c0030d 	sth	r3,12(r16)
    ab48:	80800015 	stw	r2,0(r16)
    ab4c:	80800415 	stw	r2,16(r16)
    ab50:	84800515 	stw	r18,20(r16)
    ab54:	98001a1e 	bne	r19,zero,abc0 <__smakebuf_r+0x15c>
    ab58:	dfc01317 	ldw	ra,76(sp)
    ab5c:	dcc01217 	ldw	r19,72(sp)
    ab60:	dc801117 	ldw	r18,68(sp)
    ab64:	dc401017 	ldw	r17,64(sp)
    ab68:	dc000f17 	ldw	r16,60(sp)
    ab6c:	dec01404 	addi	sp,sp,80
    ab70:	f800283a 	ret
    ab74:	288010c4 	addi	r2,r5,67
    ab78:	28800015 	stw	r2,0(r5)
    ab7c:	28800415 	stw	r2,16(r5)
    ab80:	00800044 	movi	r2,1
    ab84:	28800515 	stw	r2,20(r5)
    ab88:	f800283a 	ret
    ab8c:	04801004 	movi	r18,64
    ab90:	003fe006 	br	ab14 <__smakebuf_r+0xb0>
    ab94:	81000a17 	ldw	r4,40(r16)
    ab98:	00c00074 	movhi	r3,1
    ab9c:	18e7ee04 	addi	r3,r3,-24648
    aba0:	20ffc51e 	bne	r4,r3,aab8 <__smakebuf_r+0x54>
    aba4:	8080030b 	ldhu	r2,12(r16)
    aba8:	04810004 	movi	r18,1024
    abac:	84801315 	stw	r18,76(r16)
    abb0:	1484b03a 	or	r2,r2,r18
    abb4:	8080030d 	sth	r2,12(r16)
    abb8:	0027883a 	mov	r19,zero
    abbc:	003fd806 	br	ab20 <__smakebuf_r+0xbc>
    abc0:	8140038f 	ldh	r5,14(r16)
    abc4:	8809883a 	mov	r4,r17
    abc8:	000acdc0 	call	acdc <_isatty_r>
    abcc:	103fe226 	beq	r2,zero,ab58 <__smakebuf_r+0xf4>
    abd0:	8080030b 	ldhu	r2,12(r16)
    abd4:	10800054 	ori	r2,r2,1
    abd8:	8080030d 	sth	r2,12(r16)
    abdc:	003fde06 	br	ab58 <__smakebuf_r+0xf4>
    abe0:	8080030b 	ldhu	r2,12(r16)
    abe4:	10c0800c 	andi	r3,r2,512
    abe8:	183fdb1e 	bne	r3,zero,ab58 <__smakebuf_r+0xf4>
    abec:	10800094 	ori	r2,r2,2
    abf0:	80c010c4 	addi	r3,r16,67
    abf4:	8080030d 	sth	r2,12(r16)
    abf8:	00800044 	movi	r2,1
    abfc:	80c00015 	stw	r3,0(r16)
    ac00:	80c00415 	stw	r3,16(r16)
    ac04:	80800515 	stw	r2,20(r16)
    ac08:	003fd306 	br	ab58 <__smakebuf_r+0xf4>
    ac0c:	04810004 	movi	r18,1024
    ac10:	003fc306 	br	ab20 <__smakebuf_r+0xbc>
    ac14:	0027883a 	mov	r19,zero
    ac18:	04810004 	movi	r18,1024
    ac1c:	003fc006 	br	ab20 <__smakebuf_r+0xbc>

0000ac20 <_read_r>:
    ac20:	defffd04 	addi	sp,sp,-12
    ac24:	2805883a 	mov	r2,r5
    ac28:	dc000015 	stw	r16,0(sp)
    ac2c:	04000074 	movhi	r16,1
    ac30:	dc400115 	stw	r17,4(sp)
    ac34:	300b883a 	mov	r5,r6
    ac38:	84376404 	addi	r16,r16,-8816
    ac3c:	2023883a 	mov	r17,r4
    ac40:	380d883a 	mov	r6,r7
    ac44:	1009883a 	mov	r4,r2
    ac48:	dfc00215 	stw	ra,8(sp)
    ac4c:	80000015 	stw	zero,0(r16)
    ac50:	000b52c0 	call	b52c <read>
    ac54:	00ffffc4 	movi	r3,-1
    ac58:	10c00526 	beq	r2,r3,ac70 <_read_r+0x50>
    ac5c:	dfc00217 	ldw	ra,8(sp)
    ac60:	dc400117 	ldw	r17,4(sp)
    ac64:	dc000017 	ldw	r16,0(sp)
    ac68:	dec00304 	addi	sp,sp,12
    ac6c:	f800283a 	ret
    ac70:	80c00017 	ldw	r3,0(r16)
    ac74:	183ff926 	beq	r3,zero,ac5c <_read_r+0x3c>
    ac78:	88c00015 	stw	r3,0(r17)
    ac7c:	003ff706 	br	ac5c <_read_r+0x3c>

0000ac80 <_fstat_r>:
    ac80:	defffd04 	addi	sp,sp,-12
    ac84:	2805883a 	mov	r2,r5
    ac88:	dc000015 	stw	r16,0(sp)
    ac8c:	04000074 	movhi	r16,1
    ac90:	dc400115 	stw	r17,4(sp)
    ac94:	84376404 	addi	r16,r16,-8816
    ac98:	2023883a 	mov	r17,r4
    ac9c:	300b883a 	mov	r5,r6
    aca0:	1009883a 	mov	r4,r2
    aca4:	dfc00215 	stw	ra,8(sp)
    aca8:	80000015 	stw	zero,0(r16)
    acac:	000b0880 	call	b088 <fstat>
    acb0:	00ffffc4 	movi	r3,-1
    acb4:	10c00526 	beq	r2,r3,accc <_fstat_r+0x4c>
    acb8:	dfc00217 	ldw	ra,8(sp)
    acbc:	dc400117 	ldw	r17,4(sp)
    acc0:	dc000017 	ldw	r16,0(sp)
    acc4:	dec00304 	addi	sp,sp,12
    acc8:	f800283a 	ret
    accc:	80c00017 	ldw	r3,0(r16)
    acd0:	183ff926 	beq	r3,zero,acb8 <_fstat_r+0x38>
    acd4:	88c00015 	stw	r3,0(r17)
    acd8:	003ff706 	br	acb8 <_fstat_r+0x38>

0000acdc <_isatty_r>:
    acdc:	defffd04 	addi	sp,sp,-12
    ace0:	dc000015 	stw	r16,0(sp)
    ace4:	04000074 	movhi	r16,1
    ace8:	dc400115 	stw	r17,4(sp)
    acec:	84376404 	addi	r16,r16,-8816
    acf0:	2023883a 	mov	r17,r4
    acf4:	2809883a 	mov	r4,r5
    acf8:	dfc00215 	stw	ra,8(sp)
    acfc:	80000015 	stw	zero,0(r16)
    ad00:	000b17c0 	call	b17c <isatty>
    ad04:	00ffffc4 	movi	r3,-1
    ad08:	10c00526 	beq	r2,r3,ad20 <_isatty_r+0x44>
    ad0c:	dfc00217 	ldw	ra,8(sp)
    ad10:	dc400117 	ldw	r17,4(sp)
    ad14:	dc000017 	ldw	r16,0(sp)
    ad18:	dec00304 	addi	sp,sp,12
    ad1c:	f800283a 	ret
    ad20:	80c00017 	ldw	r3,0(r16)
    ad24:	183ff926 	beq	r3,zero,ad0c <_isatty_r+0x30>
    ad28:	88c00015 	stw	r3,0(r17)
    ad2c:	003ff706 	br	ad0c <_isatty_r+0x30>

0000ad30 <__divsi3>:
    ad30:	20001b16 	blt	r4,zero,ada0 <__divsi3+0x70>
    ad34:	000f883a 	mov	r7,zero
    ad38:	28001616 	blt	r5,zero,ad94 <__divsi3+0x64>
    ad3c:	200d883a 	mov	r6,r4
    ad40:	29001a2e 	bgeu	r5,r4,adac <__divsi3+0x7c>
    ad44:	00800804 	movi	r2,32
    ad48:	00c00044 	movi	r3,1
    ad4c:	00000106 	br	ad54 <__divsi3+0x24>
    ad50:	10000d26 	beq	r2,zero,ad88 <__divsi3+0x58>
    ad54:	294b883a 	add	r5,r5,r5
    ad58:	10bfffc4 	addi	r2,r2,-1
    ad5c:	18c7883a 	add	r3,r3,r3
    ad60:	293ffb36 	bltu	r5,r4,ad50 <__divsi3+0x20>
    ad64:	0005883a 	mov	r2,zero
    ad68:	18000726 	beq	r3,zero,ad88 <__divsi3+0x58>
    ad6c:	0005883a 	mov	r2,zero
    ad70:	31400236 	bltu	r6,r5,ad7c <__divsi3+0x4c>
    ad74:	314dc83a 	sub	r6,r6,r5
    ad78:	10c4b03a 	or	r2,r2,r3
    ad7c:	1806d07a 	srli	r3,r3,1
    ad80:	280ad07a 	srli	r5,r5,1
    ad84:	183ffa1e 	bne	r3,zero,ad70 <__divsi3+0x40>
    ad88:	38000126 	beq	r7,zero,ad90 <__divsi3+0x60>
    ad8c:	0085c83a 	sub	r2,zero,r2
    ad90:	f800283a 	ret
    ad94:	014bc83a 	sub	r5,zero,r5
    ad98:	39c0005c 	xori	r7,r7,1
    ad9c:	003fe706 	br	ad3c <__divsi3+0xc>
    ada0:	0109c83a 	sub	r4,zero,r4
    ada4:	01c00044 	movi	r7,1
    ada8:	003fe306 	br	ad38 <__divsi3+0x8>
    adac:	00c00044 	movi	r3,1
    adb0:	003fee06 	br	ad6c <__divsi3+0x3c>

0000adb4 <__modsi3>:
    adb4:	20001716 	blt	r4,zero,ae14 <__modsi3+0x60>
    adb8:	000f883a 	mov	r7,zero
    adbc:	2005883a 	mov	r2,r4
    adc0:	28001216 	blt	r5,zero,ae0c <__modsi3+0x58>
    adc4:	2900162e 	bgeu	r5,r4,ae20 <__modsi3+0x6c>
    adc8:	01800804 	movi	r6,32
    adcc:	00c00044 	movi	r3,1
    add0:	00000106 	br	add8 <__modsi3+0x24>
    add4:	30000a26 	beq	r6,zero,ae00 <__modsi3+0x4c>
    add8:	294b883a 	add	r5,r5,r5
    addc:	31bfffc4 	addi	r6,r6,-1
    ade0:	18c7883a 	add	r3,r3,r3
    ade4:	293ffb36 	bltu	r5,r4,add4 <__modsi3+0x20>
    ade8:	18000526 	beq	r3,zero,ae00 <__modsi3+0x4c>
    adec:	1806d07a 	srli	r3,r3,1
    adf0:	11400136 	bltu	r2,r5,adf8 <__modsi3+0x44>
    adf4:	1145c83a 	sub	r2,r2,r5
    adf8:	280ad07a 	srli	r5,r5,1
    adfc:	183ffb1e 	bne	r3,zero,adec <__modsi3+0x38>
    ae00:	38000126 	beq	r7,zero,ae08 <__modsi3+0x54>
    ae04:	0085c83a 	sub	r2,zero,r2
    ae08:	f800283a 	ret
    ae0c:	014bc83a 	sub	r5,zero,r5
    ae10:	003fec06 	br	adc4 <__modsi3+0x10>
    ae14:	0109c83a 	sub	r4,zero,r4
    ae18:	01c00044 	movi	r7,1
    ae1c:	003fe706 	br	adbc <__modsi3+0x8>
    ae20:	00c00044 	movi	r3,1
    ae24:	003ff106 	br	adec <__modsi3+0x38>

0000ae28 <__udivsi3>:
    ae28:	200d883a 	mov	r6,r4
    ae2c:	2900152e 	bgeu	r5,r4,ae84 <__udivsi3+0x5c>
    ae30:	28001416 	blt	r5,zero,ae84 <__udivsi3+0x5c>
    ae34:	00800804 	movi	r2,32
    ae38:	00c00044 	movi	r3,1
    ae3c:	00000206 	br	ae48 <__udivsi3+0x20>
    ae40:	10000e26 	beq	r2,zero,ae7c <__udivsi3+0x54>
    ae44:	28000516 	blt	r5,zero,ae5c <__udivsi3+0x34>
    ae48:	294b883a 	add	r5,r5,r5
    ae4c:	10bfffc4 	addi	r2,r2,-1
    ae50:	18c7883a 	add	r3,r3,r3
    ae54:	293ffa36 	bltu	r5,r4,ae40 <__udivsi3+0x18>
    ae58:	18000826 	beq	r3,zero,ae7c <__udivsi3+0x54>
    ae5c:	0005883a 	mov	r2,zero
    ae60:	31400236 	bltu	r6,r5,ae6c <__udivsi3+0x44>
    ae64:	314dc83a 	sub	r6,r6,r5
    ae68:	10c4b03a 	or	r2,r2,r3
    ae6c:	1806d07a 	srli	r3,r3,1
    ae70:	280ad07a 	srli	r5,r5,1
    ae74:	183ffa1e 	bne	r3,zero,ae60 <__udivsi3+0x38>
    ae78:	f800283a 	ret
    ae7c:	0005883a 	mov	r2,zero
    ae80:	f800283a 	ret
    ae84:	00c00044 	movi	r3,1
    ae88:	003ff406 	br	ae5c <__udivsi3+0x34>

0000ae8c <__umodsi3>:
    ae8c:	2005883a 	mov	r2,r4
    ae90:	2900122e 	bgeu	r5,r4,aedc <__umodsi3+0x50>
    ae94:	28001116 	blt	r5,zero,aedc <__umodsi3+0x50>
    ae98:	01800804 	movi	r6,32
    ae9c:	00c00044 	movi	r3,1
    aea0:	00000206 	br	aeac <__umodsi3+0x20>
    aea4:	30000c26 	beq	r6,zero,aed8 <__umodsi3+0x4c>
    aea8:	28000516 	blt	r5,zero,aec0 <__umodsi3+0x34>
    aeac:	294b883a 	add	r5,r5,r5
    aeb0:	31bfffc4 	addi	r6,r6,-1
    aeb4:	18c7883a 	add	r3,r3,r3
    aeb8:	293ffa36 	bltu	r5,r4,aea4 <__umodsi3+0x18>
    aebc:	18000626 	beq	r3,zero,aed8 <__umodsi3+0x4c>
    aec0:	1806d07a 	srli	r3,r3,1
    aec4:	11400136 	bltu	r2,r5,aecc <__umodsi3+0x40>
    aec8:	1145c83a 	sub	r2,r2,r5
    aecc:	280ad07a 	srli	r5,r5,1
    aed0:	183ffb1e 	bne	r3,zero,aec0 <__umodsi3+0x34>
    aed4:	f800283a 	ret
    aed8:	f800283a 	ret
    aedc:	00c00044 	movi	r3,1
    aee0:	003ff706 	br	aec0 <__umodsi3+0x34>

0000aee4 <__mulsi3>:
    aee4:	0005883a 	mov	r2,zero
    aee8:	20000726 	beq	r4,zero,af08 <__mulsi3+0x24>
    aeec:	20c0004c 	andi	r3,r4,1
    aef0:	2008d07a 	srli	r4,r4,1
    aef4:	18000126 	beq	r3,zero,aefc <__mulsi3+0x18>
    aef8:	1145883a 	add	r2,r2,r5
    aefc:	294b883a 	add	r5,r5,r5
    af00:	203ffa1e 	bne	r4,zero,aeec <__mulsi3+0x8>
    af04:	f800283a 	ret
    af08:	f800283a 	ret

0000af0c <alt_get_errno>:
    af0c:	defffe04 	addi	sp,sp,-8
    af10:	dfc00115 	stw	ra,4(sp)
    af14:	df000015 	stw	fp,0(sp)
    af18:	d839883a 	mov	fp,sp
    af1c:	d0a00917 	ldw	r2,-32732(gp)
    af20:	10000326 	beq	r2,zero,af30 <alt_get_errno+0x24>
    af24:	d0a00917 	ldw	r2,-32732(gp)
    af28:	103ee83a 	callr	r2
    af2c:	00000106 	br	af34 <alt_get_errno+0x28>
    af30:	d0a29904 	addi	r2,gp,-30108
    af34:	e037883a 	mov	sp,fp
    af38:	dfc00117 	ldw	ra,4(sp)
    af3c:	df000017 	ldw	fp,0(sp)
    af40:	dec00204 	addi	sp,sp,8
    af44:	f800283a 	ret

0000af48 <close>:
    af48:	defffb04 	addi	sp,sp,-20
    af4c:	dfc00415 	stw	ra,16(sp)
    af50:	df000315 	stw	fp,12(sp)
    af54:	df000304 	addi	fp,sp,12
    af58:	e13fff15 	stw	r4,-4(fp)
    af5c:	e0bfff17 	ldw	r2,-4(fp)
    af60:	10000816 	blt	r2,zero,af84 <close+0x3c>
    af64:	01400304 	movi	r5,12
    af68:	e13fff17 	ldw	r4,-4(fp)
    af6c:	000aee40 	call	aee4 <__mulsi3>
    af70:	1007883a 	mov	r3,r2
    af74:	00800074 	movhi	r2,1
    af78:	10b46004 	addi	r2,r2,-11904
    af7c:	1885883a 	add	r2,r3,r2
    af80:	00000106 	br	af88 <close+0x40>
    af84:	0005883a 	mov	r2,zero
    af88:	e0bffd15 	stw	r2,-12(fp)
    af8c:	e0bffd17 	ldw	r2,-12(fp)
    af90:	10001926 	beq	r2,zero,aff8 <close+0xb0>
    af94:	e0bffd17 	ldw	r2,-12(fp)
    af98:	10800017 	ldw	r2,0(r2)
    af9c:	10800417 	ldw	r2,16(r2)
    afa0:	10000626 	beq	r2,zero,afbc <close+0x74>
    afa4:	e0bffd17 	ldw	r2,-12(fp)
    afa8:	10800017 	ldw	r2,0(r2)
    afac:	10800417 	ldw	r2,16(r2)
    afb0:	e13ffd17 	ldw	r4,-12(fp)
    afb4:	103ee83a 	callr	r2
    afb8:	00000106 	br	afc0 <close+0x78>
    afbc:	0005883a 	mov	r2,zero
    afc0:	e0bffe15 	stw	r2,-8(fp)
    afc4:	e13fff17 	ldw	r4,-4(fp)
    afc8:	000b6300 	call	b630 <alt_release_fd>
    afcc:	e0bffe17 	ldw	r2,-8(fp)
    afd0:	1000070e 	bge	r2,zero,aff0 <close+0xa8>
    afd4:	000af0c0 	call	af0c <alt_get_errno>
    afd8:	1007883a 	mov	r3,r2
    afdc:	e0bffe17 	ldw	r2,-8(fp)
    afe0:	0085c83a 	sub	r2,zero,r2
    afe4:	18800015 	stw	r2,0(r3)
    afe8:	00bfffc4 	movi	r2,-1
    afec:	00000706 	br	b00c <close+0xc4>
    aff0:	0005883a 	mov	r2,zero
    aff4:	00000506 	br	b00c <close+0xc4>
    aff8:	000af0c0 	call	af0c <alt_get_errno>
    affc:	1007883a 	mov	r3,r2
    b000:	00801444 	movi	r2,81
    b004:	18800015 	stw	r2,0(r3)
    b008:	00bfffc4 	movi	r2,-1
    b00c:	e037883a 	mov	sp,fp
    b010:	dfc00117 	ldw	ra,4(sp)
    b014:	df000017 	ldw	fp,0(sp)
    b018:	dec00204 	addi	sp,sp,8
    b01c:	f800283a 	ret

0000b020 <alt_dev_null_write>:
    b020:	defffc04 	addi	sp,sp,-16
    b024:	df000315 	stw	fp,12(sp)
    b028:	df000304 	addi	fp,sp,12
    b02c:	e13ffd15 	stw	r4,-12(fp)
    b030:	e17ffe15 	stw	r5,-8(fp)
    b034:	e1bfff15 	stw	r6,-4(fp)
    b038:	e0bfff17 	ldw	r2,-4(fp)
    b03c:	e037883a 	mov	sp,fp
    b040:	df000017 	ldw	fp,0(sp)
    b044:	dec00104 	addi	sp,sp,4
    b048:	f800283a 	ret

0000b04c <alt_get_errno>:
    b04c:	defffe04 	addi	sp,sp,-8
    b050:	dfc00115 	stw	ra,4(sp)
    b054:	df000015 	stw	fp,0(sp)
    b058:	d839883a 	mov	fp,sp
    b05c:	d0a00917 	ldw	r2,-32732(gp)
    b060:	10000326 	beq	r2,zero,b070 <alt_get_errno+0x24>
    b064:	d0a00917 	ldw	r2,-32732(gp)
    b068:	103ee83a 	callr	r2
    b06c:	00000106 	br	b074 <alt_get_errno+0x28>
    b070:	d0a29904 	addi	r2,gp,-30108
    b074:	e037883a 	mov	sp,fp
    b078:	dfc00117 	ldw	ra,4(sp)
    b07c:	df000017 	ldw	fp,0(sp)
    b080:	dec00204 	addi	sp,sp,8
    b084:	f800283a 	ret

0000b088 <fstat>:
    b088:	defffb04 	addi	sp,sp,-20
    b08c:	dfc00415 	stw	ra,16(sp)
    b090:	df000315 	stw	fp,12(sp)
    b094:	df000304 	addi	fp,sp,12
    b098:	e13ffe15 	stw	r4,-8(fp)
    b09c:	e17fff15 	stw	r5,-4(fp)
    b0a0:	e0bffe17 	ldw	r2,-8(fp)
    b0a4:	10000816 	blt	r2,zero,b0c8 <fstat+0x40>
    b0a8:	01400304 	movi	r5,12
    b0ac:	e13ffe17 	ldw	r4,-8(fp)
    b0b0:	000aee40 	call	aee4 <__mulsi3>
    b0b4:	1007883a 	mov	r3,r2
    b0b8:	00800074 	movhi	r2,1
    b0bc:	10b46004 	addi	r2,r2,-11904
    b0c0:	1885883a 	add	r2,r3,r2
    b0c4:	00000106 	br	b0cc <fstat+0x44>
    b0c8:	0005883a 	mov	r2,zero
    b0cc:	e0bffd15 	stw	r2,-12(fp)
    b0d0:	e0bffd17 	ldw	r2,-12(fp)
    b0d4:	10001026 	beq	r2,zero,b118 <fstat+0x90>
    b0d8:	e0bffd17 	ldw	r2,-12(fp)
    b0dc:	10800017 	ldw	r2,0(r2)
    b0e0:	10800817 	ldw	r2,32(r2)
    b0e4:	10000726 	beq	r2,zero,b104 <fstat+0x7c>
    b0e8:	e0bffd17 	ldw	r2,-12(fp)
    b0ec:	10800017 	ldw	r2,0(r2)
    b0f0:	10800817 	ldw	r2,32(r2)
    b0f4:	e17fff17 	ldw	r5,-4(fp)
    b0f8:	e13ffd17 	ldw	r4,-12(fp)
    b0fc:	103ee83a 	callr	r2
    b100:	00000a06 	br	b12c <fstat+0xa4>
    b104:	e0bfff17 	ldw	r2,-4(fp)
    b108:	00c80004 	movi	r3,8192
    b10c:	10c00115 	stw	r3,4(r2)
    b110:	0005883a 	mov	r2,zero
    b114:	00000506 	br	b12c <fstat+0xa4>
    b118:	000b04c0 	call	b04c <alt_get_errno>
    b11c:	1007883a 	mov	r3,r2
    b120:	00801444 	movi	r2,81
    b124:	18800015 	stw	r2,0(r3)
    b128:	00bfffc4 	movi	r2,-1
    b12c:	e037883a 	mov	sp,fp
    b130:	dfc00117 	ldw	ra,4(sp)
    b134:	df000017 	ldw	fp,0(sp)
    b138:	dec00204 	addi	sp,sp,8
    b13c:	f800283a 	ret

0000b140 <alt_get_errno>:
    b140:	defffe04 	addi	sp,sp,-8
    b144:	dfc00115 	stw	ra,4(sp)
    b148:	df000015 	stw	fp,0(sp)
    b14c:	d839883a 	mov	fp,sp
    b150:	d0a00917 	ldw	r2,-32732(gp)
    b154:	10000326 	beq	r2,zero,b164 <alt_get_errno+0x24>
    b158:	d0a00917 	ldw	r2,-32732(gp)
    b15c:	103ee83a 	callr	r2
    b160:	00000106 	br	b168 <alt_get_errno+0x28>
    b164:	d0a29904 	addi	r2,gp,-30108
    b168:	e037883a 	mov	sp,fp
    b16c:	dfc00117 	ldw	ra,4(sp)
    b170:	df000017 	ldw	fp,0(sp)
    b174:	dec00204 	addi	sp,sp,8
    b178:	f800283a 	ret

0000b17c <isatty>:
    b17c:	deffed04 	addi	sp,sp,-76
    b180:	dfc01215 	stw	ra,72(sp)
    b184:	df001115 	stw	fp,68(sp)
    b188:	df001104 	addi	fp,sp,68
    b18c:	e13fff15 	stw	r4,-4(fp)
    b190:	e0bfff17 	ldw	r2,-4(fp)
    b194:	10000816 	blt	r2,zero,b1b8 <isatty+0x3c>
    b198:	01400304 	movi	r5,12
    b19c:	e13fff17 	ldw	r4,-4(fp)
    b1a0:	000aee40 	call	aee4 <__mulsi3>
    b1a4:	1007883a 	mov	r3,r2
    b1a8:	00800074 	movhi	r2,1
    b1ac:	10b46004 	addi	r2,r2,-11904
    b1b0:	1885883a 	add	r2,r3,r2
    b1b4:	00000106 	br	b1bc <isatty+0x40>
    b1b8:	0005883a 	mov	r2,zero
    b1bc:	e0bfef15 	stw	r2,-68(fp)
    b1c0:	e0bfef17 	ldw	r2,-68(fp)
    b1c4:	10000e26 	beq	r2,zero,b200 <isatty+0x84>
    b1c8:	e0bfef17 	ldw	r2,-68(fp)
    b1cc:	10800017 	ldw	r2,0(r2)
    b1d0:	10800817 	ldw	r2,32(r2)
    b1d4:	1000021e 	bne	r2,zero,b1e0 <isatty+0x64>
    b1d8:	00800044 	movi	r2,1
    b1dc:	00000d06 	br	b214 <isatty+0x98>
    b1e0:	e0bff004 	addi	r2,fp,-64
    b1e4:	100b883a 	mov	r5,r2
    b1e8:	e13fff17 	ldw	r4,-4(fp)
    b1ec:	000b0880 	call	b088 <fstat>
    b1f0:	e0bff117 	ldw	r2,-60(fp)
    b1f4:	10880020 	cmpeqi	r2,r2,8192
    b1f8:	10803fcc 	andi	r2,r2,255
    b1fc:	00000506 	br	b214 <isatty+0x98>
    b200:	000b1400 	call	b140 <alt_get_errno>
    b204:	1007883a 	mov	r3,r2
    b208:	00801444 	movi	r2,81
    b20c:	18800015 	stw	r2,0(r3)
    b210:	0005883a 	mov	r2,zero
    b214:	e037883a 	mov	sp,fp
    b218:	dfc00117 	ldw	ra,4(sp)
    b21c:	df000017 	ldw	fp,0(sp)
    b220:	dec00204 	addi	sp,sp,8
    b224:	f800283a 	ret

0000b228 <alt_load_section>:
    b228:	defffc04 	addi	sp,sp,-16
    b22c:	df000315 	stw	fp,12(sp)
    b230:	df000304 	addi	fp,sp,12
    b234:	e13ffd15 	stw	r4,-12(fp)
    b238:	e17ffe15 	stw	r5,-8(fp)
    b23c:	e1bfff15 	stw	r6,-4(fp)
    b240:	e0fffe17 	ldw	r3,-8(fp)
    b244:	e0bffd17 	ldw	r2,-12(fp)
    b248:	18800c26 	beq	r3,r2,b27c <alt_load_section+0x54>
    b24c:	00000806 	br	b270 <alt_load_section+0x48>
    b250:	e0bffe17 	ldw	r2,-8(fp)
    b254:	10c00104 	addi	r3,r2,4
    b258:	e0fffe15 	stw	r3,-8(fp)
    b25c:	e0fffd17 	ldw	r3,-12(fp)
    b260:	19000104 	addi	r4,r3,4
    b264:	e13ffd15 	stw	r4,-12(fp)
    b268:	18c00017 	ldw	r3,0(r3)
    b26c:	10c00015 	stw	r3,0(r2)
    b270:	e0fffe17 	ldw	r3,-8(fp)
    b274:	e0bfff17 	ldw	r2,-4(fp)
    b278:	18bff51e 	bne	r3,r2,b250 <alt_load_section+0x28>
    b27c:	0001883a 	nop
    b280:	e037883a 	mov	sp,fp
    b284:	df000017 	ldw	fp,0(sp)
    b288:	dec00104 	addi	sp,sp,4
    b28c:	f800283a 	ret

0000b290 <alt_load>:
    b290:	defffe04 	addi	sp,sp,-8
    b294:	dfc00115 	stw	ra,4(sp)
    b298:	df000015 	stw	fp,0(sp)
    b29c:	d839883a 	mov	fp,sp
    b2a0:	01800074 	movhi	r6,1
    b2a4:	31b4d604 	addi	r6,r6,-11432
    b2a8:	01400074 	movhi	r5,1
    b2ac:	29724b04 	addi	r5,r5,-14036
    b2b0:	01000074 	movhi	r4,1
    b2b4:	2134d604 	addi	r4,r4,-11432
    b2b8:	000b2280 	call	b228 <alt_load_section>
    b2bc:	01800074 	movhi	r6,1
    b2c0:	31a00804 	addi	r6,r6,-32736
    b2c4:	01400074 	movhi	r5,1
    b2c8:	29600804 	addi	r5,r5,-32736
    b2cc:	01000074 	movhi	r4,1
    b2d0:	21200804 	addi	r4,r4,-32736
    b2d4:	000b2280 	call	b228 <alt_load_section>
    b2d8:	01800074 	movhi	r6,1
    b2dc:	31b24b04 	addi	r6,r6,-14036
    b2e0:	01400074 	movhi	r5,1
    b2e4:	29723804 	addi	r5,r5,-14112
    b2e8:	01000074 	movhi	r4,1
    b2ec:	21323804 	addi	r4,r4,-14112
    b2f0:	000b2280 	call	b228 <alt_load_section>
    b2f4:	000bd080 	call	bd08 <alt_dcache_flush_all>
    b2f8:	000bec80 	call	bec8 <alt_icache_flush_all>
    b2fc:	0001883a 	nop
    b300:	e037883a 	mov	sp,fp
    b304:	dfc00117 	ldw	ra,4(sp)
    b308:	df000017 	ldw	fp,0(sp)
    b30c:	dec00204 	addi	sp,sp,8
    b310:	f800283a 	ret

0000b314 <alt_get_errno>:
    b314:	defffe04 	addi	sp,sp,-8
    b318:	dfc00115 	stw	ra,4(sp)
    b31c:	df000015 	stw	fp,0(sp)
    b320:	d839883a 	mov	fp,sp
    b324:	d0a00917 	ldw	r2,-32732(gp)
    b328:	10000326 	beq	r2,zero,b338 <alt_get_errno+0x24>
    b32c:	d0a00917 	ldw	r2,-32732(gp)
    b330:	103ee83a 	callr	r2
    b334:	00000106 	br	b33c <alt_get_errno+0x28>
    b338:	d0a29904 	addi	r2,gp,-30108
    b33c:	e037883a 	mov	sp,fp
    b340:	dfc00117 	ldw	ra,4(sp)
    b344:	df000017 	ldw	fp,0(sp)
    b348:	dec00204 	addi	sp,sp,8
    b34c:	f800283a 	ret

0000b350 <lseek>:
    b350:	defff904 	addi	sp,sp,-28
    b354:	dfc00615 	stw	ra,24(sp)
    b358:	df000515 	stw	fp,20(sp)
    b35c:	df000504 	addi	fp,sp,20
    b360:	e13ffd15 	stw	r4,-12(fp)
    b364:	e17ffe15 	stw	r5,-8(fp)
    b368:	e1bfff15 	stw	r6,-4(fp)
    b36c:	e03ffb15 	stw	zero,-20(fp)
    b370:	e0bffd17 	ldw	r2,-12(fp)
    b374:	10000816 	blt	r2,zero,b398 <lseek+0x48>
    b378:	01400304 	movi	r5,12
    b37c:	e13ffd17 	ldw	r4,-12(fp)
    b380:	000aee40 	call	aee4 <__mulsi3>
    b384:	1007883a 	mov	r3,r2
    b388:	00800074 	movhi	r2,1
    b38c:	10b46004 	addi	r2,r2,-11904
    b390:	1885883a 	add	r2,r3,r2
    b394:	00000106 	br	b39c <lseek+0x4c>
    b398:	0005883a 	mov	r2,zero
    b39c:	e0bffc15 	stw	r2,-16(fp)
    b3a0:	e0bffc17 	ldw	r2,-16(fp)
    b3a4:	10001026 	beq	r2,zero,b3e8 <lseek+0x98>
    b3a8:	e0bffc17 	ldw	r2,-16(fp)
    b3ac:	10800017 	ldw	r2,0(r2)
    b3b0:	10800717 	ldw	r2,28(r2)
    b3b4:	10000926 	beq	r2,zero,b3dc <lseek+0x8c>
    b3b8:	e0bffc17 	ldw	r2,-16(fp)
    b3bc:	10800017 	ldw	r2,0(r2)
    b3c0:	10800717 	ldw	r2,28(r2)
    b3c4:	e1bfff17 	ldw	r6,-4(fp)
    b3c8:	e17ffe17 	ldw	r5,-8(fp)
    b3cc:	e13ffc17 	ldw	r4,-16(fp)
    b3d0:	103ee83a 	callr	r2
    b3d4:	e0bffb15 	stw	r2,-20(fp)
    b3d8:	00000506 	br	b3f0 <lseek+0xa0>
    b3dc:	00bfde84 	movi	r2,-134
    b3e0:	e0bffb15 	stw	r2,-20(fp)
    b3e4:	00000206 	br	b3f0 <lseek+0xa0>
    b3e8:	00bfebc4 	movi	r2,-81
    b3ec:	e0bffb15 	stw	r2,-20(fp)
    b3f0:	e0bffb17 	ldw	r2,-20(fp)
    b3f4:	1000070e 	bge	r2,zero,b414 <lseek+0xc4>
    b3f8:	000b3140 	call	b314 <alt_get_errno>
    b3fc:	1007883a 	mov	r3,r2
    b400:	e0bffb17 	ldw	r2,-20(fp)
    b404:	0085c83a 	sub	r2,zero,r2
    b408:	18800015 	stw	r2,0(r3)
    b40c:	00bfffc4 	movi	r2,-1
    b410:	e0bffb15 	stw	r2,-20(fp)
    b414:	e0bffb17 	ldw	r2,-20(fp)
    b418:	e037883a 	mov	sp,fp
    b41c:	dfc00117 	ldw	ra,4(sp)
    b420:	df000017 	ldw	fp,0(sp)
    b424:	dec00204 	addi	sp,sp,8
    b428:	f800283a 	ret

0000b42c <alt_main>:
    b42c:	defffd04 	addi	sp,sp,-12
    b430:	dfc00215 	stw	ra,8(sp)
    b434:	df000115 	stw	fp,4(sp)
    b438:	df000104 	addi	fp,sp,4
    b43c:	0009883a 	mov	r4,zero
    b440:	000b9040 	call	b904 <alt_irq_init>
    b444:	0001883a 	nop
    b448:	000b93c0 	call	b93c <alt_sys_init>
    b44c:	01800074 	movhi	r6,1
    b450:	31b24104 	addi	r6,r6,-14076
    b454:	01400074 	movhi	r5,1
    b458:	29724104 	addi	r5,r5,-14076
    b45c:	01000074 	movhi	r4,1
    b460:	21324104 	addi	r4,r4,-14076
    b464:	000bfcc0 	call	bfcc <alt_io_redirect>
    b468:	000be080 	call	be08 <_do_ctors>
    b46c:	01000074 	movhi	r4,1
    b470:	212f9a04 	addi	r4,r4,-16792
    b474:	000c54c0 	call	c54c <atexit>
    b478:	d0a29a17 	ldw	r2,-30104(gp)
    b47c:	d0e29b17 	ldw	r3,-30100(gp)
    b480:	d1229c17 	ldw	r4,-30096(gp)
    b484:	200d883a 	mov	r6,r4
    b488:	180b883a 	mov	r5,r3
    b48c:	1009883a 	mov	r4,r2
    b490:	00080a00 	call	80a0 <main>
    b494:	e0bfff15 	stw	r2,-4(fp)
    b498:	01000044 	movi	r4,1
    b49c:	000af480 	call	af48 <close>
    b4a0:	e13fff17 	ldw	r4,-4(fp)
    b4a4:	000c5600 	call	c560 <exit>

0000b4a8 <__malloc_lock>:
    b4a8:	defffe04 	addi	sp,sp,-8
    b4ac:	df000115 	stw	fp,4(sp)
    b4b0:	df000104 	addi	fp,sp,4
    b4b4:	e13fff15 	stw	r4,-4(fp)
    b4b8:	0001883a 	nop
    b4bc:	e037883a 	mov	sp,fp
    b4c0:	df000017 	ldw	fp,0(sp)
    b4c4:	dec00104 	addi	sp,sp,4
    b4c8:	f800283a 	ret

0000b4cc <__malloc_unlock>:
    b4cc:	defffe04 	addi	sp,sp,-8
    b4d0:	df000115 	stw	fp,4(sp)
    b4d4:	df000104 	addi	fp,sp,4
    b4d8:	e13fff15 	stw	r4,-4(fp)
    b4dc:	0001883a 	nop
    b4e0:	e037883a 	mov	sp,fp
    b4e4:	df000017 	ldw	fp,0(sp)
    b4e8:	dec00104 	addi	sp,sp,4
    b4ec:	f800283a 	ret

0000b4f0 <alt_get_errno>:
    b4f0:	defffe04 	addi	sp,sp,-8
    b4f4:	dfc00115 	stw	ra,4(sp)
    b4f8:	df000015 	stw	fp,0(sp)
    b4fc:	d839883a 	mov	fp,sp
    b500:	d0a00917 	ldw	r2,-32732(gp)
    b504:	10000326 	beq	r2,zero,b514 <alt_get_errno+0x24>
    b508:	d0a00917 	ldw	r2,-32732(gp)
    b50c:	103ee83a 	callr	r2
    b510:	00000106 	br	b518 <alt_get_errno+0x28>
    b514:	d0a29904 	addi	r2,gp,-30108
    b518:	e037883a 	mov	sp,fp
    b51c:	dfc00117 	ldw	ra,4(sp)
    b520:	df000017 	ldw	fp,0(sp)
    b524:	dec00204 	addi	sp,sp,8
    b528:	f800283a 	ret

0000b52c <read>:
    b52c:	defff904 	addi	sp,sp,-28
    b530:	dfc00615 	stw	ra,24(sp)
    b534:	df000515 	stw	fp,20(sp)
    b538:	df000504 	addi	fp,sp,20
    b53c:	e13ffd15 	stw	r4,-12(fp)
    b540:	e17ffe15 	stw	r5,-8(fp)
    b544:	e1bfff15 	stw	r6,-4(fp)
    b548:	e0bffd17 	ldw	r2,-12(fp)
    b54c:	10000816 	blt	r2,zero,b570 <read+0x44>
    b550:	01400304 	movi	r5,12
    b554:	e13ffd17 	ldw	r4,-12(fp)
    b558:	000aee40 	call	aee4 <__mulsi3>
    b55c:	1007883a 	mov	r3,r2
    b560:	00800074 	movhi	r2,1
    b564:	10b46004 	addi	r2,r2,-11904
    b568:	1885883a 	add	r2,r3,r2
    b56c:	00000106 	br	b574 <read+0x48>
    b570:	0005883a 	mov	r2,zero
    b574:	e0bffb15 	stw	r2,-20(fp)
    b578:	e0bffb17 	ldw	r2,-20(fp)
    b57c:	10002226 	beq	r2,zero,b608 <read+0xdc>
    b580:	e0bffb17 	ldw	r2,-20(fp)
    b584:	10800217 	ldw	r2,8(r2)
    b588:	108000cc 	andi	r2,r2,3
    b58c:	10800060 	cmpeqi	r2,r2,1
    b590:	1000181e 	bne	r2,zero,b5f4 <read+0xc8>
    b594:	e0bffb17 	ldw	r2,-20(fp)
    b598:	10800017 	ldw	r2,0(r2)
    b59c:	10800517 	ldw	r2,20(r2)
    b5a0:	10001426 	beq	r2,zero,b5f4 <read+0xc8>
    b5a4:	e0bffb17 	ldw	r2,-20(fp)
    b5a8:	10800017 	ldw	r2,0(r2)
    b5ac:	10800517 	ldw	r2,20(r2)
    b5b0:	e0ffff17 	ldw	r3,-4(fp)
    b5b4:	180d883a 	mov	r6,r3
    b5b8:	e17ffe17 	ldw	r5,-8(fp)
    b5bc:	e13ffb17 	ldw	r4,-20(fp)
    b5c0:	103ee83a 	callr	r2
    b5c4:	e0bffc15 	stw	r2,-16(fp)
    b5c8:	e0bffc17 	ldw	r2,-16(fp)
    b5cc:	1000070e 	bge	r2,zero,b5ec <read+0xc0>
    b5d0:	000b4f00 	call	b4f0 <alt_get_errno>
    b5d4:	1007883a 	mov	r3,r2
    b5d8:	e0bffc17 	ldw	r2,-16(fp)
    b5dc:	0085c83a 	sub	r2,zero,r2
    b5e0:	18800015 	stw	r2,0(r3)
    b5e4:	00bfffc4 	movi	r2,-1
    b5e8:	00000c06 	br	b61c <read+0xf0>
    b5ec:	e0bffc17 	ldw	r2,-16(fp)
    b5f0:	00000a06 	br	b61c <read+0xf0>
    b5f4:	000b4f00 	call	b4f0 <alt_get_errno>
    b5f8:	1007883a 	mov	r3,r2
    b5fc:	00800344 	movi	r2,13
    b600:	18800015 	stw	r2,0(r3)
    b604:	00000406 	br	b618 <read+0xec>
    b608:	000b4f00 	call	b4f0 <alt_get_errno>
    b60c:	1007883a 	mov	r3,r2
    b610:	00801444 	movi	r2,81
    b614:	18800015 	stw	r2,0(r3)
    b618:	00bfffc4 	movi	r2,-1
    b61c:	e037883a 	mov	sp,fp
    b620:	dfc00117 	ldw	ra,4(sp)
    b624:	df000017 	ldw	fp,0(sp)
    b628:	dec00204 	addi	sp,sp,8
    b62c:	f800283a 	ret

0000b630 <alt_release_fd>:
    b630:	defffc04 	addi	sp,sp,-16
    b634:	dfc00315 	stw	ra,12(sp)
    b638:	df000215 	stw	fp,8(sp)
    b63c:	dc000115 	stw	r16,4(sp)
    b640:	df000204 	addi	fp,sp,8
    b644:	e13ffe15 	stw	r4,-8(fp)
    b648:	e0bffe17 	ldw	r2,-8(fp)
    b64c:	108000d0 	cmplti	r2,r2,3
    b650:	1000111e 	bne	r2,zero,b698 <alt_release_fd+0x68>
    b654:	04000074 	movhi	r16,1
    b658:	84346004 	addi	r16,r16,-11904
    b65c:	e0bffe17 	ldw	r2,-8(fp)
    b660:	01400304 	movi	r5,12
    b664:	1009883a 	mov	r4,r2
    b668:	000aee40 	call	aee4 <__mulsi3>
    b66c:	8085883a 	add	r2,r16,r2
    b670:	10800204 	addi	r2,r2,8
    b674:	10000015 	stw	zero,0(r2)
    b678:	04000074 	movhi	r16,1
    b67c:	84346004 	addi	r16,r16,-11904
    b680:	e0bffe17 	ldw	r2,-8(fp)
    b684:	01400304 	movi	r5,12
    b688:	1009883a 	mov	r4,r2
    b68c:	000aee40 	call	aee4 <__mulsi3>
    b690:	8085883a 	add	r2,r16,r2
    b694:	10000015 	stw	zero,0(r2)
    b698:	0001883a 	nop
    b69c:	e6ffff04 	addi	sp,fp,-4
    b6a0:	dfc00217 	ldw	ra,8(sp)
    b6a4:	df000117 	ldw	fp,4(sp)
    b6a8:	dc000017 	ldw	r16,0(sp)
    b6ac:	dec00304 	addi	sp,sp,12
    b6b0:	f800283a 	ret

0000b6b4 <sbrk>:
    b6b4:	defff904 	addi	sp,sp,-28
    b6b8:	df000615 	stw	fp,24(sp)
    b6bc:	df000604 	addi	fp,sp,24
    b6c0:	e13fff15 	stw	r4,-4(fp)
    b6c4:	0005303a 	rdctl	r2,status
    b6c8:	e0bffe15 	stw	r2,-8(fp)
    b6cc:	e0fffe17 	ldw	r3,-8(fp)
    b6d0:	00bfff84 	movi	r2,-2
    b6d4:	1884703a 	and	r2,r3,r2
    b6d8:	1001703a 	wrctl	status,r2
    b6dc:	e0bffe17 	ldw	r2,-8(fp)
    b6e0:	e0bffb15 	stw	r2,-20(fp)
    b6e4:	d0a00a17 	ldw	r2,-32728(gp)
    b6e8:	10c000c4 	addi	r3,r2,3
    b6ec:	00bfff04 	movi	r2,-4
    b6f0:	1884703a 	and	r2,r3,r2
    b6f4:	d0a00a15 	stw	r2,-32728(gp)
    b6f8:	d0e00a17 	ldw	r3,-32728(gp)
    b6fc:	e0bfff17 	ldw	r2,-4(fp)
    b700:	1887883a 	add	r3,r3,r2
    b704:	00800074 	movhi	r2,1
    b708:	10800004 	addi	r2,r2,0
    b70c:	10c0062e 	bgeu	r2,r3,b728 <sbrk+0x74>
    b710:	e0bffb17 	ldw	r2,-20(fp)
    b714:	e0bffa15 	stw	r2,-24(fp)
    b718:	e0bffa17 	ldw	r2,-24(fp)
    b71c:	1001703a 	wrctl	status,r2
    b720:	00bfffc4 	movi	r2,-1
    b724:	00000b06 	br	b754 <sbrk+0xa0>
    b728:	d0a00a17 	ldw	r2,-32728(gp)
    b72c:	e0bffd15 	stw	r2,-12(fp)
    b730:	d0e00a17 	ldw	r3,-32728(gp)
    b734:	e0bfff17 	ldw	r2,-4(fp)
    b738:	1885883a 	add	r2,r3,r2
    b73c:	d0a00a15 	stw	r2,-32728(gp)
    b740:	e0bffb17 	ldw	r2,-20(fp)
    b744:	e0bffc15 	stw	r2,-16(fp)
    b748:	e0bffc17 	ldw	r2,-16(fp)
    b74c:	1001703a 	wrctl	status,r2
    b750:	e0bffd17 	ldw	r2,-12(fp)
    b754:	e037883a 	mov	sp,fp
    b758:	df000017 	ldw	fp,0(sp)
    b75c:	dec00104 	addi	sp,sp,4
    b760:	f800283a 	ret

0000b764 <usleep>:
    b764:	defffd04 	addi	sp,sp,-12
    b768:	dfc00215 	stw	ra,8(sp)
    b76c:	df000115 	stw	fp,4(sp)
    b770:	df000104 	addi	fp,sp,4
    b774:	e13fff15 	stw	r4,-4(fp)
    b778:	e13fff17 	ldw	r4,-4(fp)
    b77c:	000bbb00 	call	bbb0 <alt_busy_sleep>
    b780:	e037883a 	mov	sp,fp
    b784:	dfc00117 	ldw	ra,4(sp)
    b788:	df000017 	ldw	fp,0(sp)
    b78c:	dec00204 	addi	sp,sp,8
    b790:	f800283a 	ret

0000b794 <alt_get_errno>:
    b794:	defffe04 	addi	sp,sp,-8
    b798:	dfc00115 	stw	ra,4(sp)
    b79c:	df000015 	stw	fp,0(sp)
    b7a0:	d839883a 	mov	fp,sp
    b7a4:	d0a00917 	ldw	r2,-32732(gp)
    b7a8:	10000326 	beq	r2,zero,b7b8 <alt_get_errno+0x24>
    b7ac:	d0a00917 	ldw	r2,-32732(gp)
    b7b0:	103ee83a 	callr	r2
    b7b4:	00000106 	br	b7bc <alt_get_errno+0x28>
    b7b8:	d0a29904 	addi	r2,gp,-30108
    b7bc:	e037883a 	mov	sp,fp
    b7c0:	dfc00117 	ldw	ra,4(sp)
    b7c4:	df000017 	ldw	fp,0(sp)
    b7c8:	dec00204 	addi	sp,sp,8
    b7cc:	f800283a 	ret

0000b7d0 <write>:
    b7d0:	defff904 	addi	sp,sp,-28
    b7d4:	dfc00615 	stw	ra,24(sp)
    b7d8:	df000515 	stw	fp,20(sp)
    b7dc:	df000504 	addi	fp,sp,20
    b7e0:	e13ffd15 	stw	r4,-12(fp)
    b7e4:	e17ffe15 	stw	r5,-8(fp)
    b7e8:	e1bfff15 	stw	r6,-4(fp)
    b7ec:	e0bffd17 	ldw	r2,-12(fp)
    b7f0:	10000816 	blt	r2,zero,b814 <write+0x44>
    b7f4:	01400304 	movi	r5,12
    b7f8:	e13ffd17 	ldw	r4,-12(fp)
    b7fc:	000aee40 	call	aee4 <__mulsi3>
    b800:	1007883a 	mov	r3,r2
    b804:	00800074 	movhi	r2,1
    b808:	10b46004 	addi	r2,r2,-11904
    b80c:	1885883a 	add	r2,r3,r2
    b810:	00000106 	br	b818 <write+0x48>
    b814:	0005883a 	mov	r2,zero
    b818:	e0bffb15 	stw	r2,-20(fp)
    b81c:	e0bffb17 	ldw	r2,-20(fp)
    b820:	10002126 	beq	r2,zero,b8a8 <write+0xd8>
    b824:	e0bffb17 	ldw	r2,-20(fp)
    b828:	10800217 	ldw	r2,8(r2)
    b82c:	108000cc 	andi	r2,r2,3
    b830:	10001826 	beq	r2,zero,b894 <write+0xc4>
    b834:	e0bffb17 	ldw	r2,-20(fp)
    b838:	10800017 	ldw	r2,0(r2)
    b83c:	10800617 	ldw	r2,24(r2)
    b840:	10001426 	beq	r2,zero,b894 <write+0xc4>
    b844:	e0bffb17 	ldw	r2,-20(fp)
    b848:	10800017 	ldw	r2,0(r2)
    b84c:	10800617 	ldw	r2,24(r2)
    b850:	e0ffff17 	ldw	r3,-4(fp)
    b854:	180d883a 	mov	r6,r3
    b858:	e17ffe17 	ldw	r5,-8(fp)
    b85c:	e13ffb17 	ldw	r4,-20(fp)
    b860:	103ee83a 	callr	r2
    b864:	e0bffc15 	stw	r2,-16(fp)
    b868:	e0bffc17 	ldw	r2,-16(fp)
    b86c:	1000070e 	bge	r2,zero,b88c <write+0xbc>
    b870:	000b7940 	call	b794 <alt_get_errno>
    b874:	1007883a 	mov	r3,r2
    b878:	e0bffc17 	ldw	r2,-16(fp)
    b87c:	0085c83a 	sub	r2,zero,r2
    b880:	18800015 	stw	r2,0(r3)
    b884:	00bfffc4 	movi	r2,-1
    b888:	00000c06 	br	b8bc <write+0xec>
    b88c:	e0bffc17 	ldw	r2,-16(fp)
    b890:	00000a06 	br	b8bc <write+0xec>
    b894:	000b7940 	call	b794 <alt_get_errno>
    b898:	1007883a 	mov	r3,r2
    b89c:	00800344 	movi	r2,13
    b8a0:	18800015 	stw	r2,0(r3)
    b8a4:	00000406 	br	b8b8 <write+0xe8>
    b8a8:	000b7940 	call	b794 <alt_get_errno>
    b8ac:	1007883a 	mov	r3,r2
    b8b0:	00801444 	movi	r2,81
    b8b4:	18800015 	stw	r2,0(r3)
    b8b8:	00bfffc4 	movi	r2,-1
    b8bc:	e037883a 	mov	sp,fp
    b8c0:	dfc00117 	ldw	ra,4(sp)
    b8c4:	df000017 	ldw	fp,0(sp)
    b8c8:	dec00204 	addi	sp,sp,8
    b8cc:	f800283a 	ret

0000b8d0 <alt_dev_reg>:
    b8d0:	defffd04 	addi	sp,sp,-12
    b8d4:	dfc00215 	stw	ra,8(sp)
    b8d8:	df000115 	stw	fp,4(sp)
    b8dc:	df000104 	addi	fp,sp,4
    b8e0:	e13fff15 	stw	r4,-4(fp)
    b8e4:	d1600604 	addi	r5,gp,-32744
    b8e8:	e13fff17 	ldw	r4,-4(fp)
    b8ec:	000bd640 	call	bd64 <alt_dev_llist_insert>
    b8f0:	e037883a 	mov	sp,fp
    b8f4:	dfc00117 	ldw	ra,4(sp)
    b8f8:	df000017 	ldw	fp,0(sp)
    b8fc:	dec00204 	addi	sp,sp,8
    b900:	f800283a 	ret

0000b904 <alt_irq_init>:
    b904:	defffd04 	addi	sp,sp,-12
    b908:	dfc00215 	stw	ra,8(sp)
    b90c:	df000115 	stw	fp,4(sp)
    b910:	df000104 	addi	fp,sp,4
    b914:	e13fff15 	stw	r4,-4(fp)
    b918:	000c2cc0 	call	c2cc <altera_nios2_gen2_irq_init>
    b91c:	00800044 	movi	r2,1
    b920:	1001703a 	wrctl	status,r2
    b924:	0001883a 	nop
    b928:	e037883a 	mov	sp,fp
    b92c:	dfc00117 	ldw	ra,4(sp)
    b930:	df000017 	ldw	fp,0(sp)
    b934:	dec00204 	addi	sp,sp,8
    b938:	f800283a 	ret

0000b93c <alt_sys_init>:
    b93c:	defffe04 	addi	sp,sp,-8
    b940:	dfc00115 	stw	ra,4(sp)
    b944:	df000015 	stw	fp,0(sp)
    b948:	d839883a 	mov	fp,sp
    b94c:	01000074 	movhi	r4,1
    b950:	2134c004 	addi	r4,r4,-11520
    b954:	000b8d00 	call	b8d0 <alt_dev_reg>
    b958:	0001883a 	nop
    b95c:	e037883a 	mov	sp,fp
    b960:	dfc00117 	ldw	ra,4(sp)
    b964:	df000017 	ldw	fp,0(sp)
    b968:	dec00204 	addi	sp,sp,8
    b96c:	f800283a 	ret

0000b970 <altera_avalon_jtag_uart_read_fd>:
    b970:	defffa04 	addi	sp,sp,-24
    b974:	dfc00515 	stw	ra,20(sp)
    b978:	df000415 	stw	fp,16(sp)
    b97c:	df000404 	addi	fp,sp,16
    b980:	e13ffd15 	stw	r4,-12(fp)
    b984:	e17ffe15 	stw	r5,-8(fp)
    b988:	e1bfff15 	stw	r6,-4(fp)
    b98c:	e0bffd17 	ldw	r2,-12(fp)
    b990:	10800017 	ldw	r2,0(r2)
    b994:	e0bffc15 	stw	r2,-16(fp)
    b998:	e0bffc17 	ldw	r2,-16(fp)
    b99c:	10c00a04 	addi	r3,r2,40
    b9a0:	e0bffd17 	ldw	r2,-12(fp)
    b9a4:	10800217 	ldw	r2,8(r2)
    b9a8:	100f883a 	mov	r7,r2
    b9ac:	e1bfff17 	ldw	r6,-4(fp)
    b9b0:	e17ffe17 	ldw	r5,-8(fp)
    b9b4:	1809883a 	mov	r4,r3
    b9b8:	000ba300 	call	ba30 <altera_avalon_jtag_uart_read>
    b9bc:	e037883a 	mov	sp,fp
    b9c0:	dfc00117 	ldw	ra,4(sp)
    b9c4:	df000017 	ldw	fp,0(sp)
    b9c8:	dec00204 	addi	sp,sp,8
    b9cc:	f800283a 	ret

0000b9d0 <altera_avalon_jtag_uart_write_fd>:
    b9d0:	defffa04 	addi	sp,sp,-24
    b9d4:	dfc00515 	stw	ra,20(sp)
    b9d8:	df000415 	stw	fp,16(sp)
    b9dc:	df000404 	addi	fp,sp,16
    b9e0:	e13ffd15 	stw	r4,-12(fp)
    b9e4:	e17ffe15 	stw	r5,-8(fp)
    b9e8:	e1bfff15 	stw	r6,-4(fp)
    b9ec:	e0bffd17 	ldw	r2,-12(fp)
    b9f0:	10800017 	ldw	r2,0(r2)
    b9f4:	e0bffc15 	stw	r2,-16(fp)
    b9f8:	e0bffc17 	ldw	r2,-16(fp)
    b9fc:	10c00a04 	addi	r3,r2,40
    ba00:	e0bffd17 	ldw	r2,-12(fp)
    ba04:	10800217 	ldw	r2,8(r2)
    ba08:	100f883a 	mov	r7,r2
    ba0c:	e1bfff17 	ldw	r6,-4(fp)
    ba10:	e17ffe17 	ldw	r5,-8(fp)
    ba14:	1809883a 	mov	r4,r3
    ba18:	000bb1c0 	call	bb1c <altera_avalon_jtag_uart_write>
    ba1c:	e037883a 	mov	sp,fp
    ba20:	dfc00117 	ldw	ra,4(sp)
    ba24:	df000017 	ldw	fp,0(sp)
    ba28:	dec00204 	addi	sp,sp,8
    ba2c:	f800283a 	ret

0000ba30 <altera_avalon_jtag_uart_read>:
    ba30:	defff704 	addi	sp,sp,-36
    ba34:	df000815 	stw	fp,32(sp)
    ba38:	df000804 	addi	fp,sp,32
    ba3c:	e13ffc15 	stw	r4,-16(fp)
    ba40:	e17ffd15 	stw	r5,-12(fp)
    ba44:	e1bffe15 	stw	r6,-8(fp)
    ba48:	e1ffff15 	stw	r7,-4(fp)
    ba4c:	e0bffc17 	ldw	r2,-16(fp)
    ba50:	10800017 	ldw	r2,0(r2)
    ba54:	e0bff915 	stw	r2,-28(fp)
    ba58:	e0bffd17 	ldw	r2,-12(fp)
    ba5c:	e0bff815 	stw	r2,-32(fp)
    ba60:	e0bffe17 	ldw	r2,-8(fp)
    ba64:	e0fffd17 	ldw	r3,-12(fp)
    ba68:	1885883a 	add	r2,r3,r2
    ba6c:	e0bffa15 	stw	r2,-24(fp)
    ba70:	00001206 	br	babc <altera_avalon_jtag_uart_read+0x8c>
    ba74:	e0bff917 	ldw	r2,-28(fp)
    ba78:	10800037 	ldwio	r2,0(r2)
    ba7c:	e0bffb15 	stw	r2,-20(fp)
    ba80:	e0bffb17 	ldw	r2,-20(fp)
    ba84:	10a0000c 	andi	r2,r2,32768
    ba88:	10000626 	beq	r2,zero,baa4 <altera_avalon_jtag_uart_read+0x74>
    ba8c:	e0bff817 	ldw	r2,-32(fp)
    ba90:	10c00044 	addi	r3,r2,1
    ba94:	e0fff815 	stw	r3,-32(fp)
    ba98:	e0fffb17 	ldw	r3,-20(fp)
    ba9c:	10c00005 	stb	r3,0(r2)
    baa0:	00000606 	br	babc <altera_avalon_jtag_uart_read+0x8c>
    baa4:	e0fff817 	ldw	r3,-32(fp)
    baa8:	e0bffd17 	ldw	r2,-12(fp)
    baac:	1880071e 	bne	r3,r2,bacc <altera_avalon_jtag_uart_read+0x9c>
    bab0:	e0bfff17 	ldw	r2,-4(fp)
    bab4:	1090000c 	andi	r2,r2,16384
    bab8:	1000061e 	bne	r2,zero,bad4 <altera_avalon_jtag_uart_read+0xa4>
    babc:	e0fff817 	ldw	r3,-32(fp)
    bac0:	e0bffa17 	ldw	r2,-24(fp)
    bac4:	18bfeb36 	bltu	r3,r2,ba74 <altera_avalon_jtag_uart_read+0x44>
    bac8:	00000306 	br	bad8 <altera_avalon_jtag_uart_read+0xa8>
    bacc:	0001883a 	nop
    bad0:	00000106 	br	bad8 <altera_avalon_jtag_uart_read+0xa8>
    bad4:	0001883a 	nop
    bad8:	e0fff817 	ldw	r3,-32(fp)
    badc:	e0bffd17 	ldw	r2,-12(fp)
    bae0:	18800426 	beq	r3,r2,baf4 <altera_avalon_jtag_uart_read+0xc4>
    bae4:	e0fff817 	ldw	r3,-32(fp)
    bae8:	e0bffd17 	ldw	r2,-12(fp)
    baec:	1885c83a 	sub	r2,r3,r2
    baf0:	00000606 	br	bb0c <altera_avalon_jtag_uart_read+0xdc>
    baf4:	e0bfff17 	ldw	r2,-4(fp)
    baf8:	1090000c 	andi	r2,r2,16384
    bafc:	10000226 	beq	r2,zero,bb08 <altera_avalon_jtag_uart_read+0xd8>
    bb00:	00bffd44 	movi	r2,-11
    bb04:	00000106 	br	bb0c <altera_avalon_jtag_uart_read+0xdc>
    bb08:	00bffec4 	movi	r2,-5
    bb0c:	e037883a 	mov	sp,fp
    bb10:	df000017 	ldw	fp,0(sp)
    bb14:	dec00104 	addi	sp,sp,4
    bb18:	f800283a 	ret

0000bb1c <altera_avalon_jtag_uart_write>:
    bb1c:	defff904 	addi	sp,sp,-28
    bb20:	df000615 	stw	fp,24(sp)
    bb24:	df000604 	addi	fp,sp,24
    bb28:	e13ffc15 	stw	r4,-16(fp)
    bb2c:	e17ffd15 	stw	r5,-12(fp)
    bb30:	e1bffe15 	stw	r6,-8(fp)
    bb34:	e1ffff15 	stw	r7,-4(fp)
    bb38:	e0bffc17 	ldw	r2,-16(fp)
    bb3c:	10800017 	ldw	r2,0(r2)
    bb40:	e0bffa15 	stw	r2,-24(fp)
    bb44:	e0bffe17 	ldw	r2,-8(fp)
    bb48:	e0fffd17 	ldw	r3,-12(fp)
    bb4c:	1885883a 	add	r2,r3,r2
    bb50:	e0bffb15 	stw	r2,-20(fp)
    bb54:	00000e06 	br	bb90 <altera_avalon_jtag_uart_write+0x74>
    bb58:	e0bffa17 	ldw	r2,-24(fp)
    bb5c:	10800104 	addi	r2,r2,4
    bb60:	10800037 	ldwio	r2,0(r2)
    bb64:	10bfffec 	andhi	r2,r2,65535
    bb68:	10000926 	beq	r2,zero,bb90 <altera_avalon_jtag_uart_write+0x74>
    bb6c:	e0fffa17 	ldw	r3,-24(fp)
    bb70:	e0bffd17 	ldw	r2,-12(fp)
    bb74:	11000044 	addi	r4,r2,1
    bb78:	e13ffd15 	stw	r4,-12(fp)
    bb7c:	10800003 	ldbu	r2,0(r2)
    bb80:	10803fcc 	andi	r2,r2,255
    bb84:	1080201c 	xori	r2,r2,128
    bb88:	10bfe004 	addi	r2,r2,-128
    bb8c:	18800035 	stwio	r2,0(r3)
    bb90:	e0fffd17 	ldw	r3,-12(fp)
    bb94:	e0bffb17 	ldw	r2,-20(fp)
    bb98:	18bfef36 	bltu	r3,r2,bb58 <altera_avalon_jtag_uart_write+0x3c>
    bb9c:	e0bffe17 	ldw	r2,-8(fp)
    bba0:	e037883a 	mov	sp,fp
    bba4:	df000017 	ldw	fp,0(sp)
    bba8:	dec00104 	addi	sp,sp,4
    bbac:	f800283a 	ret

0000bbb0 <alt_busy_sleep>:
    bbb0:	defffa04 	addi	sp,sp,-24
    bbb4:	dfc00515 	stw	ra,20(sp)
    bbb8:	df000415 	stw	fp,16(sp)
    bbbc:	df000404 	addi	fp,sp,16
    bbc0:	e13fff15 	stw	r4,-4(fp)
    bbc4:	00800244 	movi	r2,9
    bbc8:	e0bffd15 	stw	r2,-12(fp)
    bbcc:	014003f4 	movhi	r5,15
    bbd0:	29509004 	addi	r5,r5,16960
    bbd4:	e13ffd17 	ldw	r4,-12(fp)
    bbd8:	000aee40 	call	aee4 <__mulsi3>
    bbdc:	100b883a 	mov	r5,r2
    bbe0:	0100bef4 	movhi	r4,763
    bbe4:	213c2004 	addi	r4,r4,-3968
    bbe8:	000ae280 	call	ae28 <__udivsi3>
    bbec:	100b883a 	mov	r5,r2
    bbf0:	01200034 	movhi	r4,32768
    bbf4:	213fffc4 	addi	r4,r4,-1
    bbf8:	000ae280 	call	ae28 <__udivsi3>
    bbfc:	100b883a 	mov	r5,r2
    bc00:	e13fff17 	ldw	r4,-4(fp)
    bc04:	000ae280 	call	ae28 <__udivsi3>
    bc08:	e0bffe15 	stw	r2,-8(fp)
    bc0c:	e0bffe17 	ldw	r2,-8(fp)
    bc10:	10002a26 	beq	r2,zero,bcbc <alt_busy_sleep+0x10c>
    bc14:	e03ffc15 	stw	zero,-16(fp)
    bc18:	00001706 	br	bc78 <alt_busy_sleep+0xc8>
    bc1c:	00a00034 	movhi	r2,32768
    bc20:	10bfffc4 	addi	r2,r2,-1
    bc24:	10bfffc4 	addi	r2,r2,-1
    bc28:	103ffe1e 	bne	r2,zero,bc24 <alt_busy_sleep+0x74>
    bc2c:	014003f4 	movhi	r5,15
    bc30:	29509004 	addi	r5,r5,16960
    bc34:	e13ffd17 	ldw	r4,-12(fp)
    bc38:	000aee40 	call	aee4 <__mulsi3>
    bc3c:	100b883a 	mov	r5,r2
    bc40:	0100bef4 	movhi	r4,763
    bc44:	213c2004 	addi	r4,r4,-3968
    bc48:	000ae280 	call	ae28 <__udivsi3>
    bc4c:	100b883a 	mov	r5,r2
    bc50:	01200034 	movhi	r4,32768
    bc54:	213fffc4 	addi	r4,r4,-1
    bc58:	000ae280 	call	ae28 <__udivsi3>
    bc5c:	1007883a 	mov	r3,r2
    bc60:	e0bfff17 	ldw	r2,-4(fp)
    bc64:	10c5c83a 	sub	r2,r2,r3
    bc68:	e0bfff15 	stw	r2,-4(fp)
    bc6c:	e0bffc17 	ldw	r2,-16(fp)
    bc70:	10800044 	addi	r2,r2,1
    bc74:	e0bffc15 	stw	r2,-16(fp)
    bc78:	e0fffc17 	ldw	r3,-16(fp)
    bc7c:	e0bffe17 	ldw	r2,-8(fp)
    bc80:	18bfe616 	blt	r3,r2,bc1c <alt_busy_sleep+0x6c>
    bc84:	014003f4 	movhi	r5,15
    bc88:	29509004 	addi	r5,r5,16960
    bc8c:	e13ffd17 	ldw	r4,-12(fp)
    bc90:	000aee40 	call	aee4 <__mulsi3>
    bc94:	100b883a 	mov	r5,r2
    bc98:	0100bef4 	movhi	r4,763
    bc9c:	213c2004 	addi	r4,r4,-3968
    bca0:	000ae280 	call	ae28 <__udivsi3>
    bca4:	e17fff17 	ldw	r5,-4(fp)
    bca8:	1009883a 	mov	r4,r2
    bcac:	000aee40 	call	aee4 <__mulsi3>
    bcb0:	10bfffc4 	addi	r2,r2,-1
    bcb4:	103ffe1e 	bne	r2,zero,bcb0 <alt_busy_sleep+0x100>
    bcb8:	00000d06 	br	bcf0 <alt_busy_sleep+0x140>
    bcbc:	014003f4 	movhi	r5,15
    bcc0:	29509004 	addi	r5,r5,16960
    bcc4:	e13ffd17 	ldw	r4,-12(fp)
    bcc8:	000aee40 	call	aee4 <__mulsi3>
    bccc:	100b883a 	mov	r5,r2
    bcd0:	0100bef4 	movhi	r4,763
    bcd4:	213c2004 	addi	r4,r4,-3968
    bcd8:	000ae280 	call	ae28 <__udivsi3>
    bcdc:	e17fff17 	ldw	r5,-4(fp)
    bce0:	1009883a 	mov	r4,r2
    bce4:	000aee40 	call	aee4 <__mulsi3>
    bce8:	10bfffc4 	addi	r2,r2,-1
    bcec:	00bffe16 	blt	zero,r2,bce8 <alt_busy_sleep+0x138>
    bcf0:	0005883a 	mov	r2,zero
    bcf4:	e037883a 	mov	sp,fp
    bcf8:	dfc00117 	ldw	ra,4(sp)
    bcfc:	df000017 	ldw	fp,0(sp)
    bd00:	dec00204 	addi	sp,sp,8
    bd04:	f800283a 	ret

0000bd08 <alt_dcache_flush_all>:
    bd08:	deffff04 	addi	sp,sp,-4
    bd0c:	df000015 	stw	fp,0(sp)
    bd10:	d839883a 	mov	fp,sp
    bd14:	0001883a 	nop
    bd18:	e037883a 	mov	sp,fp
    bd1c:	df000017 	ldw	fp,0(sp)
    bd20:	dec00104 	addi	sp,sp,4
    bd24:	f800283a 	ret

0000bd28 <alt_get_errno>:
    bd28:	defffe04 	addi	sp,sp,-8
    bd2c:	dfc00115 	stw	ra,4(sp)
    bd30:	df000015 	stw	fp,0(sp)
    bd34:	d839883a 	mov	fp,sp
    bd38:	d0a00917 	ldw	r2,-32732(gp)
    bd3c:	10000326 	beq	r2,zero,bd4c <alt_get_errno+0x24>
    bd40:	d0a00917 	ldw	r2,-32732(gp)
    bd44:	103ee83a 	callr	r2
    bd48:	00000106 	br	bd50 <alt_get_errno+0x28>
    bd4c:	d0a29904 	addi	r2,gp,-30108
    bd50:	e037883a 	mov	sp,fp
    bd54:	dfc00117 	ldw	ra,4(sp)
    bd58:	df000017 	ldw	fp,0(sp)
    bd5c:	dec00204 	addi	sp,sp,8
    bd60:	f800283a 	ret

0000bd64 <alt_dev_llist_insert>:
    bd64:	defffa04 	addi	sp,sp,-24
    bd68:	dfc00515 	stw	ra,20(sp)
    bd6c:	df000415 	stw	fp,16(sp)
    bd70:	df000404 	addi	fp,sp,16
    bd74:	e13ffe15 	stw	r4,-8(fp)
    bd78:	e17fff15 	stw	r5,-4(fp)
    bd7c:	e0bffe17 	ldw	r2,-8(fp)
    bd80:	10000326 	beq	r2,zero,bd90 <alt_dev_llist_insert+0x2c>
    bd84:	e0bffe17 	ldw	r2,-8(fp)
    bd88:	10800217 	ldw	r2,8(r2)
    bd8c:	1000061e 	bne	r2,zero,bda8 <alt_dev_llist_insert+0x44>
    bd90:	000bd280 	call	bd28 <alt_get_errno>
    bd94:	1007883a 	mov	r3,r2
    bd98:	00800584 	movi	r2,22
    bd9c:	18800015 	stw	r2,0(r3)
    bda0:	00bffa84 	movi	r2,-22
    bda4:	00001306 	br	bdf4 <alt_dev_llist_insert+0x90>
    bda8:	e0bffe17 	ldw	r2,-8(fp)
    bdac:	e0ffff17 	ldw	r3,-4(fp)
    bdb0:	e0fffc15 	stw	r3,-16(fp)
    bdb4:	e0bffd15 	stw	r2,-12(fp)
    bdb8:	e0bffd17 	ldw	r2,-12(fp)
    bdbc:	e0fffc17 	ldw	r3,-16(fp)
    bdc0:	10c00115 	stw	r3,4(r2)
    bdc4:	e0bffc17 	ldw	r2,-16(fp)
    bdc8:	10c00017 	ldw	r3,0(r2)
    bdcc:	e0bffd17 	ldw	r2,-12(fp)
    bdd0:	10c00015 	stw	r3,0(r2)
    bdd4:	e0bffc17 	ldw	r2,-16(fp)
    bdd8:	10800017 	ldw	r2,0(r2)
    bddc:	e0fffd17 	ldw	r3,-12(fp)
    bde0:	10c00115 	stw	r3,4(r2)
    bde4:	e0bffc17 	ldw	r2,-16(fp)
    bde8:	e0fffd17 	ldw	r3,-12(fp)
    bdec:	10c00015 	stw	r3,0(r2)
    bdf0:	0005883a 	mov	r2,zero
    bdf4:	e037883a 	mov	sp,fp
    bdf8:	dfc00117 	ldw	ra,4(sp)
    bdfc:	df000017 	ldw	fp,0(sp)
    be00:	dec00204 	addi	sp,sp,8
    be04:	f800283a 	ret

0000be08 <_do_ctors>:
    be08:	defffd04 	addi	sp,sp,-12
    be0c:	dfc00215 	stw	ra,8(sp)
    be10:	df000115 	stw	fp,4(sp)
    be14:	df000104 	addi	fp,sp,4
    be18:	00800074 	movhi	r2,1
    be1c:	10b23704 	addi	r2,r2,-14116
    be20:	e0bfff15 	stw	r2,-4(fp)
    be24:	00000606 	br	be40 <_do_ctors+0x38>
    be28:	e0bfff17 	ldw	r2,-4(fp)
    be2c:	10800017 	ldw	r2,0(r2)
    be30:	103ee83a 	callr	r2
    be34:	e0bfff17 	ldw	r2,-4(fp)
    be38:	10bfff04 	addi	r2,r2,-4
    be3c:	e0bfff15 	stw	r2,-4(fp)
    be40:	e0ffff17 	ldw	r3,-4(fp)
    be44:	00800074 	movhi	r2,1
    be48:	10b23804 	addi	r2,r2,-14112
    be4c:	18bff62e 	bgeu	r3,r2,be28 <_do_ctors+0x20>
    be50:	0001883a 	nop
    be54:	e037883a 	mov	sp,fp
    be58:	dfc00117 	ldw	ra,4(sp)
    be5c:	df000017 	ldw	fp,0(sp)
    be60:	dec00204 	addi	sp,sp,8
    be64:	f800283a 	ret

0000be68 <_do_dtors>:
    be68:	defffd04 	addi	sp,sp,-12
    be6c:	dfc00215 	stw	ra,8(sp)
    be70:	df000115 	stw	fp,4(sp)
    be74:	df000104 	addi	fp,sp,4
    be78:	00800074 	movhi	r2,1
    be7c:	10b23704 	addi	r2,r2,-14116
    be80:	e0bfff15 	stw	r2,-4(fp)
    be84:	00000606 	br	bea0 <_do_dtors+0x38>
    be88:	e0bfff17 	ldw	r2,-4(fp)
    be8c:	10800017 	ldw	r2,0(r2)
    be90:	103ee83a 	callr	r2
    be94:	e0bfff17 	ldw	r2,-4(fp)
    be98:	10bfff04 	addi	r2,r2,-4
    be9c:	e0bfff15 	stw	r2,-4(fp)
    bea0:	e0ffff17 	ldw	r3,-4(fp)
    bea4:	00800074 	movhi	r2,1
    bea8:	10b23804 	addi	r2,r2,-14112
    beac:	18bff62e 	bgeu	r3,r2,be88 <_do_dtors+0x20>
    beb0:	0001883a 	nop
    beb4:	e037883a 	mov	sp,fp
    beb8:	dfc00117 	ldw	ra,4(sp)
    bebc:	df000017 	ldw	fp,0(sp)
    bec0:	dec00204 	addi	sp,sp,8
    bec4:	f800283a 	ret

0000bec8 <alt_icache_flush_all>:
    bec8:	deffff04 	addi	sp,sp,-4
    becc:	df000015 	stw	fp,0(sp)
    bed0:	d839883a 	mov	fp,sp
    bed4:	0001883a 	nop
    bed8:	e037883a 	mov	sp,fp
    bedc:	df000017 	ldw	fp,0(sp)
    bee0:	dec00104 	addi	sp,sp,4
    bee4:	f800283a 	ret

0000bee8 <alt_open_fd>:
    bee8:	defff804 	addi	sp,sp,-32
    beec:	dfc00715 	stw	ra,28(sp)
    bef0:	df000615 	stw	fp,24(sp)
    bef4:	dc000515 	stw	r16,20(sp)
    bef8:	df000604 	addi	fp,sp,24
    befc:	e13ffb15 	stw	r4,-20(fp)
    bf00:	e17ffc15 	stw	r5,-16(fp)
    bf04:	e1bffd15 	stw	r6,-12(fp)
    bf08:	e1fffe15 	stw	r7,-8(fp)
    bf0c:	e1bffe17 	ldw	r6,-8(fp)
    bf10:	e17ffd17 	ldw	r5,-12(fp)
    bf14:	e13ffc17 	ldw	r4,-16(fp)
    bf18:	000c1700 	call	c170 <open>
    bf1c:	e0bffa15 	stw	r2,-24(fp)
    bf20:	e0bffa17 	ldw	r2,-24(fp)
    bf24:	10002216 	blt	r2,zero,bfb0 <alt_open_fd+0xc8>
    bf28:	04000074 	movhi	r16,1
    bf2c:	84346004 	addi	r16,r16,-11904
    bf30:	e0bffa17 	ldw	r2,-24(fp)
    bf34:	01400304 	movi	r5,12
    bf38:	1009883a 	mov	r4,r2
    bf3c:	000aee40 	call	aee4 <__mulsi3>
    bf40:	8085883a 	add	r2,r16,r2
    bf44:	10c00017 	ldw	r3,0(r2)
    bf48:	e0bffb17 	ldw	r2,-20(fp)
    bf4c:	10c00015 	stw	r3,0(r2)
    bf50:	04000074 	movhi	r16,1
    bf54:	84346004 	addi	r16,r16,-11904
    bf58:	e0bffa17 	ldw	r2,-24(fp)
    bf5c:	01400304 	movi	r5,12
    bf60:	1009883a 	mov	r4,r2
    bf64:	000aee40 	call	aee4 <__mulsi3>
    bf68:	8085883a 	add	r2,r16,r2
    bf6c:	10800104 	addi	r2,r2,4
    bf70:	10c00017 	ldw	r3,0(r2)
    bf74:	e0bffb17 	ldw	r2,-20(fp)
    bf78:	10c00115 	stw	r3,4(r2)
    bf7c:	04000074 	movhi	r16,1
    bf80:	84346004 	addi	r16,r16,-11904
    bf84:	e0bffa17 	ldw	r2,-24(fp)
    bf88:	01400304 	movi	r5,12
    bf8c:	1009883a 	mov	r4,r2
    bf90:	000aee40 	call	aee4 <__mulsi3>
    bf94:	8085883a 	add	r2,r16,r2
    bf98:	10800204 	addi	r2,r2,8
    bf9c:	10c00017 	ldw	r3,0(r2)
    bfa0:	e0bffb17 	ldw	r2,-20(fp)
    bfa4:	10c00215 	stw	r3,8(r2)
    bfa8:	e13ffa17 	ldw	r4,-24(fp)
    bfac:	000b6300 	call	b630 <alt_release_fd>
    bfb0:	0001883a 	nop
    bfb4:	e6ffff04 	addi	sp,fp,-4
    bfb8:	dfc00217 	ldw	ra,8(sp)
    bfbc:	df000117 	ldw	fp,4(sp)
    bfc0:	dc000017 	ldw	r16,0(sp)
    bfc4:	dec00304 	addi	sp,sp,12
    bfc8:	f800283a 	ret

0000bfcc <alt_io_redirect>:
    bfcc:	defffb04 	addi	sp,sp,-20
    bfd0:	dfc00415 	stw	ra,16(sp)
    bfd4:	df000315 	stw	fp,12(sp)
    bfd8:	df000304 	addi	fp,sp,12
    bfdc:	e13ffd15 	stw	r4,-12(fp)
    bfe0:	e17ffe15 	stw	r5,-8(fp)
    bfe4:	e1bfff15 	stw	r6,-4(fp)
    bfe8:	01c07fc4 	movi	r7,511
    bfec:	01800044 	movi	r6,1
    bff0:	e17ffd17 	ldw	r5,-12(fp)
    bff4:	01000074 	movhi	r4,1
    bff8:	21346304 	addi	r4,r4,-11892
    bffc:	000bee80 	call	bee8 <alt_open_fd>
    c000:	01c07fc4 	movi	r7,511
    c004:	000d883a 	mov	r6,zero
    c008:	e17ffe17 	ldw	r5,-8(fp)
    c00c:	01000074 	movhi	r4,1
    c010:	21346004 	addi	r4,r4,-11904
    c014:	000bee80 	call	bee8 <alt_open_fd>
    c018:	01c07fc4 	movi	r7,511
    c01c:	01800044 	movi	r6,1
    c020:	e17fff17 	ldw	r5,-4(fp)
    c024:	01000074 	movhi	r4,1
    c028:	21346604 	addi	r4,r4,-11880
    c02c:	000bee80 	call	bee8 <alt_open_fd>
    c030:	0001883a 	nop
    c034:	e037883a 	mov	sp,fp
    c038:	dfc00117 	ldw	ra,4(sp)
    c03c:	df000017 	ldw	fp,0(sp)
    c040:	dec00204 	addi	sp,sp,8
    c044:	f800283a 	ret

0000c048 <alt_get_errno>:
    c048:	defffe04 	addi	sp,sp,-8
    c04c:	dfc00115 	stw	ra,4(sp)
    c050:	df000015 	stw	fp,0(sp)
    c054:	d839883a 	mov	fp,sp
    c058:	d0a00917 	ldw	r2,-32732(gp)
    c05c:	10000326 	beq	r2,zero,c06c <alt_get_errno+0x24>
    c060:	d0a00917 	ldw	r2,-32732(gp)
    c064:	103ee83a 	callr	r2
    c068:	00000106 	br	c070 <alt_get_errno+0x28>
    c06c:	d0a29904 	addi	r2,gp,-30108
    c070:	e037883a 	mov	sp,fp
    c074:	dfc00117 	ldw	ra,4(sp)
    c078:	df000017 	ldw	fp,0(sp)
    c07c:	dec00204 	addi	sp,sp,8
    c080:	f800283a 	ret

0000c084 <alt_file_locked>:
    c084:	defffb04 	addi	sp,sp,-20
    c088:	dfc00415 	stw	ra,16(sp)
    c08c:	df000315 	stw	fp,12(sp)
    c090:	dc000215 	stw	r16,8(sp)
    c094:	df000304 	addi	fp,sp,12
    c098:	e13ffe15 	stw	r4,-8(fp)
    c09c:	e0bffe17 	ldw	r2,-8(fp)
    c0a0:	10800217 	ldw	r2,8(r2)
    c0a4:	10d00034 	orhi	r3,r2,16384
    c0a8:	e0bffe17 	ldw	r2,-8(fp)
    c0ac:	10c00215 	stw	r3,8(r2)
    c0b0:	e03ffd15 	stw	zero,-12(fp)
    c0b4:	00002306 	br	c144 <alt_file_locked+0xc0>
    c0b8:	04000074 	movhi	r16,1
    c0bc:	84346004 	addi	r16,r16,-11904
    c0c0:	e0bffd17 	ldw	r2,-12(fp)
    c0c4:	01400304 	movi	r5,12
    c0c8:	1009883a 	mov	r4,r2
    c0cc:	000aee40 	call	aee4 <__mulsi3>
    c0d0:	8085883a 	add	r2,r16,r2
    c0d4:	10c00017 	ldw	r3,0(r2)
    c0d8:	e0bffe17 	ldw	r2,-8(fp)
    c0dc:	10800017 	ldw	r2,0(r2)
    c0e0:	1880151e 	bne	r3,r2,c138 <alt_file_locked+0xb4>
    c0e4:	04000074 	movhi	r16,1
    c0e8:	84346004 	addi	r16,r16,-11904
    c0ec:	e0bffd17 	ldw	r2,-12(fp)
    c0f0:	01400304 	movi	r5,12
    c0f4:	1009883a 	mov	r4,r2
    c0f8:	000aee40 	call	aee4 <__mulsi3>
    c0fc:	8085883a 	add	r2,r16,r2
    c100:	10800204 	addi	r2,r2,8
    c104:	10800017 	ldw	r2,0(r2)
    c108:	10000b0e 	bge	r2,zero,c138 <alt_file_locked+0xb4>
    c10c:	01400304 	movi	r5,12
    c110:	e13ffd17 	ldw	r4,-12(fp)
    c114:	000aee40 	call	aee4 <__mulsi3>
    c118:	1007883a 	mov	r3,r2
    c11c:	00800074 	movhi	r2,1
    c120:	10b46004 	addi	r2,r2,-11904
    c124:	1887883a 	add	r3,r3,r2
    c128:	e0bffe17 	ldw	r2,-8(fp)
    c12c:	18800226 	beq	r3,r2,c138 <alt_file_locked+0xb4>
    c130:	00bffcc4 	movi	r2,-13
    c134:	00000806 	br	c158 <alt_file_locked+0xd4>
    c138:	e0bffd17 	ldw	r2,-12(fp)
    c13c:	10800044 	addi	r2,r2,1
    c140:	e0bffd15 	stw	r2,-12(fp)
    c144:	d0a00817 	ldw	r2,-32736(gp)
    c148:	1007883a 	mov	r3,r2
    c14c:	e0bffd17 	ldw	r2,-12(fp)
    c150:	18bfd92e 	bgeu	r3,r2,c0b8 <alt_file_locked+0x34>
    c154:	0005883a 	mov	r2,zero
    c158:	e6ffff04 	addi	sp,fp,-4
    c15c:	dfc00217 	ldw	ra,8(sp)
    c160:	df000117 	ldw	fp,4(sp)
    c164:	dc000017 	ldw	r16,0(sp)
    c168:	dec00304 	addi	sp,sp,12
    c16c:	f800283a 	ret

0000c170 <open>:
    c170:	defff604 	addi	sp,sp,-40
    c174:	dfc00915 	stw	ra,36(sp)
    c178:	df000815 	stw	fp,32(sp)
    c17c:	df000804 	addi	fp,sp,32
    c180:	e13ffd15 	stw	r4,-12(fp)
    c184:	e17ffe15 	stw	r5,-8(fp)
    c188:	e1bfff15 	stw	r6,-4(fp)
    c18c:	00bfffc4 	movi	r2,-1
    c190:	e0bff915 	stw	r2,-28(fp)
    c194:	00bffb44 	movi	r2,-19
    c198:	e0bffa15 	stw	r2,-24(fp)
    c19c:	e03ffb15 	stw	zero,-20(fp)
    c1a0:	d1600604 	addi	r5,gp,-32744
    c1a4:	e13ffd17 	ldw	r4,-12(fp)
    c1a8:	000c2f00 	call	c2f0 <alt_find_dev>
    c1ac:	e0bff815 	stw	r2,-32(fp)
    c1b0:	e0bff817 	ldw	r2,-32(fp)
    c1b4:	1000051e 	bne	r2,zero,c1cc <open+0x5c>
    c1b8:	e13ffd17 	ldw	r4,-12(fp)
    c1bc:	000c3800 	call	c380 <alt_find_file>
    c1c0:	e0bff815 	stw	r2,-32(fp)
    c1c4:	00800044 	movi	r2,1
    c1c8:	e0bffb15 	stw	r2,-20(fp)
    c1cc:	e0bff817 	ldw	r2,-32(fp)
    c1d0:	10002b26 	beq	r2,zero,c280 <open+0x110>
    c1d4:	e13ff817 	ldw	r4,-32(fp)
    c1d8:	000c4880 	call	c488 <alt_get_fd>
    c1dc:	e0bff915 	stw	r2,-28(fp)
    c1e0:	e0bff917 	ldw	r2,-28(fp)
    c1e4:	1000030e 	bge	r2,zero,c1f4 <open+0x84>
    c1e8:	e0bff917 	ldw	r2,-28(fp)
    c1ec:	e0bffa15 	stw	r2,-24(fp)
    c1f0:	00002506 	br	c288 <open+0x118>
    c1f4:	01400304 	movi	r5,12
    c1f8:	e13ff917 	ldw	r4,-28(fp)
    c1fc:	000aee40 	call	aee4 <__mulsi3>
    c200:	1007883a 	mov	r3,r2
    c204:	00800074 	movhi	r2,1
    c208:	10b46004 	addi	r2,r2,-11904
    c20c:	1885883a 	add	r2,r3,r2
    c210:	e0bffc15 	stw	r2,-16(fp)
    c214:	e0fffe17 	ldw	r3,-8(fp)
    c218:	00900034 	movhi	r2,16384
    c21c:	10bfffc4 	addi	r2,r2,-1
    c220:	1886703a 	and	r3,r3,r2
    c224:	e0bffc17 	ldw	r2,-16(fp)
    c228:	10c00215 	stw	r3,8(r2)
    c22c:	e0bffb17 	ldw	r2,-20(fp)
    c230:	1000051e 	bne	r2,zero,c248 <open+0xd8>
    c234:	e13ffc17 	ldw	r4,-16(fp)
    c238:	000c0840 	call	c084 <alt_file_locked>
    c23c:	e0bffa15 	stw	r2,-24(fp)
    c240:	e0bffa17 	ldw	r2,-24(fp)
    c244:	10001016 	blt	r2,zero,c288 <open+0x118>
    c248:	e0bff817 	ldw	r2,-32(fp)
    c24c:	10800317 	ldw	r2,12(r2)
    c250:	10000826 	beq	r2,zero,c274 <open+0x104>
    c254:	e0bff817 	ldw	r2,-32(fp)
    c258:	10800317 	ldw	r2,12(r2)
    c25c:	e1ffff17 	ldw	r7,-4(fp)
    c260:	e1bffe17 	ldw	r6,-8(fp)
    c264:	e17ffd17 	ldw	r5,-12(fp)
    c268:	e13ffc17 	ldw	r4,-16(fp)
    c26c:	103ee83a 	callr	r2
    c270:	00000106 	br	c278 <open+0x108>
    c274:	0005883a 	mov	r2,zero
    c278:	e0bffa15 	stw	r2,-24(fp)
    c27c:	00000206 	br	c288 <open+0x118>
    c280:	00bffb44 	movi	r2,-19
    c284:	e0bffa15 	stw	r2,-24(fp)
    c288:	e0bffa17 	ldw	r2,-24(fp)
    c28c:	1000090e 	bge	r2,zero,c2b4 <open+0x144>
    c290:	e13ff917 	ldw	r4,-28(fp)
    c294:	000b6300 	call	b630 <alt_release_fd>
    c298:	000c0480 	call	c048 <alt_get_errno>
    c29c:	1007883a 	mov	r3,r2
    c2a0:	e0bffa17 	ldw	r2,-24(fp)
    c2a4:	0085c83a 	sub	r2,zero,r2
    c2a8:	18800015 	stw	r2,0(r3)
    c2ac:	00bfffc4 	movi	r2,-1
    c2b0:	00000106 	br	c2b8 <open+0x148>
    c2b4:	e0bff917 	ldw	r2,-28(fp)
    c2b8:	e037883a 	mov	sp,fp
    c2bc:	dfc00117 	ldw	ra,4(sp)
    c2c0:	df000017 	ldw	fp,0(sp)
    c2c4:	dec00204 	addi	sp,sp,8
    c2c8:	f800283a 	ret

0000c2cc <altera_nios2_gen2_irq_init>:
    c2cc:	deffff04 	addi	sp,sp,-4
    c2d0:	df000015 	stw	fp,0(sp)
    c2d4:	d839883a 	mov	fp,sp
    c2d8:	000170fa 	wrctl	ienable,zero
    c2dc:	0001883a 	nop
    c2e0:	e037883a 	mov	sp,fp
    c2e4:	df000017 	ldw	fp,0(sp)
    c2e8:	dec00104 	addi	sp,sp,4
    c2ec:	f800283a 	ret

0000c2f0 <alt_find_dev>:
    c2f0:	defffa04 	addi	sp,sp,-24
    c2f4:	dfc00515 	stw	ra,20(sp)
    c2f8:	df000415 	stw	fp,16(sp)
    c2fc:	df000404 	addi	fp,sp,16
    c300:	e13ffe15 	stw	r4,-8(fp)
    c304:	e17fff15 	stw	r5,-4(fp)
    c308:	e0bfff17 	ldw	r2,-4(fp)
    c30c:	10800017 	ldw	r2,0(r2)
    c310:	e0bffc15 	stw	r2,-16(fp)
    c314:	e13ffe17 	ldw	r4,-8(fp)
    c318:	00081d40 	call	81d4 <strlen>
    c31c:	10800044 	addi	r2,r2,1
    c320:	e0bffd15 	stw	r2,-12(fp)
    c324:	00000d06 	br	c35c <alt_find_dev+0x6c>
    c328:	e0bffc17 	ldw	r2,-16(fp)
    c32c:	10800217 	ldw	r2,8(r2)
    c330:	e0fffd17 	ldw	r3,-12(fp)
    c334:	180d883a 	mov	r6,r3
    c338:	e17ffe17 	ldw	r5,-8(fp)
    c33c:	1009883a 	mov	r4,r2
    c340:	000c5980 	call	c598 <memcmp>
    c344:	1000021e 	bne	r2,zero,c350 <alt_find_dev+0x60>
    c348:	e0bffc17 	ldw	r2,-16(fp)
    c34c:	00000706 	br	c36c <alt_find_dev+0x7c>
    c350:	e0bffc17 	ldw	r2,-16(fp)
    c354:	10800017 	ldw	r2,0(r2)
    c358:	e0bffc15 	stw	r2,-16(fp)
    c35c:	e0fffc17 	ldw	r3,-16(fp)
    c360:	e0bfff17 	ldw	r2,-4(fp)
    c364:	18bff01e 	bne	r3,r2,c328 <alt_find_dev+0x38>
    c368:	0005883a 	mov	r2,zero
    c36c:	e037883a 	mov	sp,fp
    c370:	dfc00117 	ldw	ra,4(sp)
    c374:	df000017 	ldw	fp,0(sp)
    c378:	dec00204 	addi	sp,sp,8
    c37c:	f800283a 	ret

0000c380 <alt_find_file>:
    c380:	defffb04 	addi	sp,sp,-20
    c384:	dfc00415 	stw	ra,16(sp)
    c388:	df000315 	stw	fp,12(sp)
    c38c:	df000304 	addi	fp,sp,12
    c390:	e13fff15 	stw	r4,-4(fp)
    c394:	d0a00417 	ldw	r2,-32752(gp)
    c398:	e0bffd15 	stw	r2,-12(fp)
    c39c:	00003106 	br	c464 <alt_find_file+0xe4>
    c3a0:	e0bffd17 	ldw	r2,-12(fp)
    c3a4:	10800217 	ldw	r2,8(r2)
    c3a8:	1009883a 	mov	r4,r2
    c3ac:	00081d40 	call	81d4 <strlen>
    c3b0:	e0bffe15 	stw	r2,-8(fp)
    c3b4:	e0bffd17 	ldw	r2,-12(fp)
    c3b8:	10c00217 	ldw	r3,8(r2)
    c3bc:	e0bffe17 	ldw	r2,-8(fp)
    c3c0:	10bfffc4 	addi	r2,r2,-1
    c3c4:	1885883a 	add	r2,r3,r2
    c3c8:	10800003 	ldbu	r2,0(r2)
    c3cc:	10803fcc 	andi	r2,r2,255
    c3d0:	1080201c 	xori	r2,r2,128
    c3d4:	10bfe004 	addi	r2,r2,-128
    c3d8:	10800bd8 	cmpnei	r2,r2,47
    c3dc:	1000031e 	bne	r2,zero,c3ec <alt_find_file+0x6c>
    c3e0:	e0bffe17 	ldw	r2,-8(fp)
    c3e4:	10bfffc4 	addi	r2,r2,-1
    c3e8:	e0bffe15 	stw	r2,-8(fp)
    c3ec:	e0bffe17 	ldw	r2,-8(fp)
    c3f0:	e0ffff17 	ldw	r3,-4(fp)
    c3f4:	1885883a 	add	r2,r3,r2
    c3f8:	10800003 	ldbu	r2,0(r2)
    c3fc:	10803fcc 	andi	r2,r2,255
    c400:	1080201c 	xori	r2,r2,128
    c404:	10bfe004 	addi	r2,r2,-128
    c408:	10800be0 	cmpeqi	r2,r2,47
    c40c:	1000081e 	bne	r2,zero,c430 <alt_find_file+0xb0>
    c410:	e0bffe17 	ldw	r2,-8(fp)
    c414:	e0ffff17 	ldw	r3,-4(fp)
    c418:	1885883a 	add	r2,r3,r2
    c41c:	10800003 	ldbu	r2,0(r2)
    c420:	10803fcc 	andi	r2,r2,255
    c424:	1080201c 	xori	r2,r2,128
    c428:	10bfe004 	addi	r2,r2,-128
    c42c:	10000a1e 	bne	r2,zero,c458 <alt_find_file+0xd8>
    c430:	e0bffd17 	ldw	r2,-12(fp)
    c434:	10800217 	ldw	r2,8(r2)
    c438:	e0fffe17 	ldw	r3,-8(fp)
    c43c:	180d883a 	mov	r6,r3
    c440:	e17fff17 	ldw	r5,-4(fp)
    c444:	1009883a 	mov	r4,r2
    c448:	000c5980 	call	c598 <memcmp>
    c44c:	1000021e 	bne	r2,zero,c458 <alt_find_file+0xd8>
    c450:	e0bffd17 	ldw	r2,-12(fp)
    c454:	00000706 	br	c474 <alt_find_file+0xf4>
    c458:	e0bffd17 	ldw	r2,-12(fp)
    c45c:	10800017 	ldw	r2,0(r2)
    c460:	e0bffd15 	stw	r2,-12(fp)
    c464:	e0fffd17 	ldw	r3,-12(fp)
    c468:	d0a00404 	addi	r2,gp,-32752
    c46c:	18bfcc1e 	bne	r3,r2,c3a0 <alt_find_file+0x20>
    c470:	0005883a 	mov	r2,zero
    c474:	e037883a 	mov	sp,fp
    c478:	dfc00117 	ldw	ra,4(sp)
    c47c:	df000017 	ldw	fp,0(sp)
    c480:	dec00204 	addi	sp,sp,8
    c484:	f800283a 	ret

0000c488 <alt_get_fd>:
    c488:	defffa04 	addi	sp,sp,-24
    c48c:	dfc00515 	stw	ra,20(sp)
    c490:	df000415 	stw	fp,16(sp)
    c494:	dc000315 	stw	r16,12(sp)
    c498:	df000404 	addi	fp,sp,16
    c49c:	e13ffe15 	stw	r4,-8(fp)
    c4a0:	00bffa04 	movi	r2,-24
    c4a4:	e0bffd15 	stw	r2,-12(fp)
    c4a8:	e03ffc15 	stw	zero,-16(fp)
    c4ac:	00001d06 	br	c524 <alt_get_fd+0x9c>
    c4b0:	04000074 	movhi	r16,1
    c4b4:	84346004 	addi	r16,r16,-11904
    c4b8:	e0bffc17 	ldw	r2,-16(fp)
    c4bc:	01400304 	movi	r5,12
    c4c0:	1009883a 	mov	r4,r2
    c4c4:	000aee40 	call	aee4 <__mulsi3>
    c4c8:	8085883a 	add	r2,r16,r2
    c4cc:	10800017 	ldw	r2,0(r2)
    c4d0:	1000111e 	bne	r2,zero,c518 <alt_get_fd+0x90>
    c4d4:	04000074 	movhi	r16,1
    c4d8:	84346004 	addi	r16,r16,-11904
    c4dc:	e0bffc17 	ldw	r2,-16(fp)
    c4e0:	01400304 	movi	r5,12
    c4e4:	1009883a 	mov	r4,r2
    c4e8:	000aee40 	call	aee4 <__mulsi3>
    c4ec:	8085883a 	add	r2,r16,r2
    c4f0:	e0fffe17 	ldw	r3,-8(fp)
    c4f4:	10c00015 	stw	r3,0(r2)
    c4f8:	d0e00817 	ldw	r3,-32736(gp)
    c4fc:	e0bffc17 	ldw	r2,-16(fp)
    c500:	1880020e 	bge	r3,r2,c50c <alt_get_fd+0x84>
    c504:	e0bffc17 	ldw	r2,-16(fp)
    c508:	d0a00815 	stw	r2,-32736(gp)
    c50c:	e0bffc17 	ldw	r2,-16(fp)
    c510:	e0bffd15 	stw	r2,-12(fp)
    c514:	00000606 	br	c530 <alt_get_fd+0xa8>
    c518:	e0bffc17 	ldw	r2,-16(fp)
    c51c:	10800044 	addi	r2,r2,1
    c520:	e0bffc15 	stw	r2,-16(fp)
    c524:	e0bffc17 	ldw	r2,-16(fp)
    c528:	10800810 	cmplti	r2,r2,32
    c52c:	103fe01e 	bne	r2,zero,c4b0 <alt_get_fd+0x28>
    c530:	e0bffd17 	ldw	r2,-12(fp)
    c534:	e6ffff04 	addi	sp,fp,-4
    c538:	dfc00217 	ldw	ra,8(sp)
    c53c:	df000117 	ldw	fp,4(sp)
    c540:	dc000017 	ldw	r16,0(sp)
    c544:	dec00304 	addi	sp,sp,12
    c548:	f800283a 	ret

0000c54c <atexit>:
    c54c:	200b883a 	mov	r5,r4
    c550:	000f883a 	mov	r7,zero
    c554:	000d883a 	mov	r6,zero
    c558:	0009883a 	mov	r4,zero
    c55c:	000c6141 	jmpi	c614 <__register_exitproc>

0000c560 <exit>:
    c560:	defffe04 	addi	sp,sp,-8
    c564:	000b883a 	mov	r5,zero
    c568:	dc000015 	stw	r16,0(sp)
    c56c:	dfc00115 	stw	ra,4(sp)
    c570:	2021883a 	mov	r16,r4
    c574:	000c72c0 	call	c72c <__call_exitprocs>
    c578:	00800074 	movhi	r2,1
    c57c:	10b4cb04 	addi	r2,r2,-11476
    c580:	11000017 	ldw	r4,0(r2)
    c584:	20800f17 	ldw	r2,60(r4)
    c588:	10000126 	beq	r2,zero,c590 <exit+0x30>
    c58c:	103ee83a 	callr	r2
    c590:	8009883a 	mov	r4,r16
    c594:	000c8ac0 	call	c8ac <_exit>

0000c598 <memcmp>:
    c598:	01c000c4 	movi	r7,3
    c59c:	3980192e 	bgeu	r7,r6,c604 <memcmp+0x6c>
    c5a0:	2144b03a 	or	r2,r4,r5
    c5a4:	11c4703a 	and	r2,r2,r7
    c5a8:	10000f26 	beq	r2,zero,c5e8 <memcmp+0x50>
    c5ac:	20800003 	ldbu	r2,0(r4)
    c5b0:	28c00003 	ldbu	r3,0(r5)
    c5b4:	10c0151e 	bne	r2,r3,c60c <memcmp+0x74>
    c5b8:	31bfff84 	addi	r6,r6,-2
    c5bc:	01ffffc4 	movi	r7,-1
    c5c0:	00000406 	br	c5d4 <memcmp+0x3c>
    c5c4:	20800003 	ldbu	r2,0(r4)
    c5c8:	28c00003 	ldbu	r3,0(r5)
    c5cc:	31bfffc4 	addi	r6,r6,-1
    c5d0:	10c00e1e 	bne	r2,r3,c60c <memcmp+0x74>
    c5d4:	21000044 	addi	r4,r4,1
    c5d8:	29400044 	addi	r5,r5,1
    c5dc:	31fff91e 	bne	r6,r7,c5c4 <memcmp+0x2c>
    c5e0:	0005883a 	mov	r2,zero
    c5e4:	f800283a 	ret
    c5e8:	20c00017 	ldw	r3,0(r4)
    c5ec:	28800017 	ldw	r2,0(r5)
    c5f0:	18bfee1e 	bne	r3,r2,c5ac <memcmp+0x14>
    c5f4:	31bfff04 	addi	r6,r6,-4
    c5f8:	21000104 	addi	r4,r4,4
    c5fc:	29400104 	addi	r5,r5,4
    c600:	39bff936 	bltu	r7,r6,c5e8 <memcmp+0x50>
    c604:	303fe91e 	bne	r6,zero,c5ac <memcmp+0x14>
    c608:	003ff506 	br	c5e0 <memcmp+0x48>
    c60c:	10c5c83a 	sub	r2,r2,r3
    c610:	f800283a 	ret

0000c614 <__register_exitproc>:
    c614:	defffa04 	addi	sp,sp,-24
    c618:	dc000315 	stw	r16,12(sp)
    c61c:	04000074 	movhi	r16,1
    c620:	8434cb04 	addi	r16,r16,-11476
    c624:	80c00017 	ldw	r3,0(r16)
    c628:	dc400415 	stw	r17,16(sp)
    c62c:	dfc00515 	stw	ra,20(sp)
    c630:	18805217 	ldw	r2,328(r3)
    c634:	2023883a 	mov	r17,r4
    c638:	10003726 	beq	r2,zero,c718 <__register_exitproc+0x104>
    c63c:	10c00117 	ldw	r3,4(r2)
    c640:	010007c4 	movi	r4,31
    c644:	20c00e16 	blt	r4,r3,c680 <__register_exitproc+0x6c>
    c648:	1a000044 	addi	r8,r3,1
    c64c:	8800221e 	bne	r17,zero,c6d8 <__register_exitproc+0xc4>
    c650:	18c00084 	addi	r3,r3,2
    c654:	18c7883a 	add	r3,r3,r3
    c658:	18c7883a 	add	r3,r3,r3
    c65c:	12000115 	stw	r8,4(r2)
    c660:	10c7883a 	add	r3,r2,r3
    c664:	19400015 	stw	r5,0(r3)
    c668:	0005883a 	mov	r2,zero
    c66c:	dfc00517 	ldw	ra,20(sp)
    c670:	dc400417 	ldw	r17,16(sp)
    c674:	dc000317 	ldw	r16,12(sp)
    c678:	dec00604 	addi	sp,sp,24
    c67c:	f800283a 	ret
    c680:	00800034 	movhi	r2,0
    c684:	10800004 	addi	r2,r2,0
    c688:	10002626 	beq	r2,zero,c724 <__register_exitproc+0x110>
    c68c:	01006404 	movi	r4,400
    c690:	d9400015 	stw	r5,0(sp)
    c694:	d9800115 	stw	r6,4(sp)
    c698:	d9c00215 	stw	r7,8(sp)
    c69c:	00000000 	call	0 <__alt_mem_onchip_memory2_0-0x8000>
    c6a0:	d9400017 	ldw	r5,0(sp)
    c6a4:	d9800117 	ldw	r6,4(sp)
    c6a8:	d9c00217 	ldw	r7,8(sp)
    c6ac:	10001d26 	beq	r2,zero,c724 <__register_exitproc+0x110>
    c6b0:	81000017 	ldw	r4,0(r16)
    c6b4:	10000115 	stw	zero,4(r2)
    c6b8:	02000044 	movi	r8,1
    c6bc:	22405217 	ldw	r9,328(r4)
    c6c0:	0007883a 	mov	r3,zero
    c6c4:	12400015 	stw	r9,0(r2)
    c6c8:	20805215 	stw	r2,328(r4)
    c6cc:	10006215 	stw	zero,392(r2)
    c6d0:	10006315 	stw	zero,396(r2)
    c6d4:	883fde26 	beq	r17,zero,c650 <__register_exitproc+0x3c>
    c6d8:	18c9883a 	add	r4,r3,r3
    c6dc:	2109883a 	add	r4,r4,r4
    c6e0:	1109883a 	add	r4,r2,r4
    c6e4:	21802215 	stw	r6,136(r4)
    c6e8:	01800044 	movi	r6,1
    c6ec:	12406217 	ldw	r9,392(r2)
    c6f0:	30cc983a 	sll	r6,r6,r3
    c6f4:	4992b03a 	or	r9,r9,r6
    c6f8:	12406215 	stw	r9,392(r2)
    c6fc:	21c04215 	stw	r7,264(r4)
    c700:	01000084 	movi	r4,2
    c704:	893fd21e 	bne	r17,r4,c650 <__register_exitproc+0x3c>
    c708:	11006317 	ldw	r4,396(r2)
    c70c:	218cb03a 	or	r6,r4,r6
    c710:	11806315 	stw	r6,396(r2)
    c714:	003fce06 	br	c650 <__register_exitproc+0x3c>
    c718:	18805304 	addi	r2,r3,332
    c71c:	18805215 	stw	r2,328(r3)
    c720:	003fc606 	br	c63c <__register_exitproc+0x28>
    c724:	00bfffc4 	movi	r2,-1
    c728:	003fd006 	br	c66c <__register_exitproc+0x58>

0000c72c <__call_exitprocs>:
    c72c:	defff504 	addi	sp,sp,-44
    c730:	df000915 	stw	fp,36(sp)
    c734:	dd400615 	stw	r21,24(sp)
    c738:	dc800315 	stw	r18,12(sp)
    c73c:	dfc00a15 	stw	ra,40(sp)
    c740:	ddc00815 	stw	r23,32(sp)
    c744:	dd800715 	stw	r22,28(sp)
    c748:	dd000515 	stw	r20,20(sp)
    c74c:	dcc00415 	stw	r19,16(sp)
    c750:	dc400215 	stw	r17,8(sp)
    c754:	dc000115 	stw	r16,4(sp)
    c758:	d9000015 	stw	r4,0(sp)
    c75c:	2839883a 	mov	fp,r5
    c760:	04800044 	movi	r18,1
    c764:	057fffc4 	movi	r21,-1
    c768:	00800074 	movhi	r2,1
    c76c:	10b4cb04 	addi	r2,r2,-11476
    c770:	12000017 	ldw	r8,0(r2)
    c774:	45005217 	ldw	r20,328(r8)
    c778:	44c05204 	addi	r19,r8,328
    c77c:	a0001c26 	beq	r20,zero,c7f0 <__call_exitprocs+0xc4>
    c780:	a0800117 	ldw	r2,4(r20)
    c784:	15ffffc4 	addi	r23,r2,-1
    c788:	b8000d16 	blt	r23,zero,c7c0 <__call_exitprocs+0x94>
    c78c:	14000044 	addi	r16,r2,1
    c790:	8421883a 	add	r16,r16,r16
    c794:	8421883a 	add	r16,r16,r16
    c798:	84402004 	addi	r17,r16,128
    c79c:	a463883a 	add	r17,r20,r17
    c7a0:	a421883a 	add	r16,r20,r16
    c7a4:	e0001e26 	beq	fp,zero,c820 <__call_exitprocs+0xf4>
    c7a8:	80804017 	ldw	r2,256(r16)
    c7ac:	e0801c26 	beq	fp,r2,c820 <__call_exitprocs+0xf4>
    c7b0:	bdffffc4 	addi	r23,r23,-1
    c7b4:	843fff04 	addi	r16,r16,-4
    c7b8:	8c7fff04 	addi	r17,r17,-4
    c7bc:	bd7ff91e 	bne	r23,r21,c7a4 <__call_exitprocs+0x78>
    c7c0:	00800034 	movhi	r2,0
    c7c4:	10800004 	addi	r2,r2,0
    c7c8:	10000926 	beq	r2,zero,c7f0 <__call_exitprocs+0xc4>
    c7cc:	a0800117 	ldw	r2,4(r20)
    c7d0:	1000301e 	bne	r2,zero,c894 <__call_exitprocs+0x168>
    c7d4:	a0800017 	ldw	r2,0(r20)
    c7d8:	10003226 	beq	r2,zero,c8a4 <__call_exitprocs+0x178>
    c7dc:	a009883a 	mov	r4,r20
    c7e0:	98800015 	stw	r2,0(r19)
    c7e4:	00000000 	call	0 <__alt_mem_onchip_memory2_0-0x8000>
    c7e8:	9d000017 	ldw	r20,0(r19)
    c7ec:	a03fe41e 	bne	r20,zero,c780 <__call_exitprocs+0x54>
    c7f0:	dfc00a17 	ldw	ra,40(sp)
    c7f4:	df000917 	ldw	fp,36(sp)
    c7f8:	ddc00817 	ldw	r23,32(sp)
    c7fc:	dd800717 	ldw	r22,28(sp)
    c800:	dd400617 	ldw	r21,24(sp)
    c804:	dd000517 	ldw	r20,20(sp)
    c808:	dcc00417 	ldw	r19,16(sp)
    c80c:	dc800317 	ldw	r18,12(sp)
    c810:	dc400217 	ldw	r17,8(sp)
    c814:	dc000117 	ldw	r16,4(sp)
    c818:	dec00b04 	addi	sp,sp,44
    c81c:	f800283a 	ret
    c820:	a0800117 	ldw	r2,4(r20)
    c824:	80c00017 	ldw	r3,0(r16)
    c828:	10bfffc4 	addi	r2,r2,-1
    c82c:	15c01426 	beq	r2,r23,c880 <__call_exitprocs+0x154>
    c830:	80000015 	stw	zero,0(r16)
    c834:	183fde26 	beq	r3,zero,c7b0 <__call_exitprocs+0x84>
    c838:	95c8983a 	sll	r4,r18,r23
    c83c:	a0806217 	ldw	r2,392(r20)
    c840:	a5800117 	ldw	r22,4(r20)
    c844:	2084703a 	and	r2,r4,r2
    c848:	10000b26 	beq	r2,zero,c878 <__call_exitprocs+0x14c>
    c84c:	a0806317 	ldw	r2,396(r20)
    c850:	2088703a 	and	r4,r4,r2
    c854:	20000c1e 	bne	r4,zero,c888 <__call_exitprocs+0x15c>
    c858:	89400017 	ldw	r5,0(r17)
    c85c:	d9000017 	ldw	r4,0(sp)
    c860:	183ee83a 	callr	r3
    c864:	a0800117 	ldw	r2,4(r20)
    c868:	15bfbf1e 	bne	r2,r22,c768 <__call_exitprocs+0x3c>
    c86c:	98800017 	ldw	r2,0(r19)
    c870:	153fcf26 	beq	r2,r20,c7b0 <__call_exitprocs+0x84>
    c874:	003fbc06 	br	c768 <__call_exitprocs+0x3c>
    c878:	183ee83a 	callr	r3
    c87c:	003ff906 	br	c864 <__call_exitprocs+0x138>
    c880:	a5c00115 	stw	r23,4(r20)
    c884:	003feb06 	br	c834 <__call_exitprocs+0x108>
    c888:	89000017 	ldw	r4,0(r17)
    c88c:	183ee83a 	callr	r3
    c890:	003ff406 	br	c864 <__call_exitprocs+0x138>
    c894:	a0800017 	ldw	r2,0(r20)
    c898:	a027883a 	mov	r19,r20
    c89c:	1029883a 	mov	r20,r2
    c8a0:	003fb606 	br	c77c <__call_exitprocs+0x50>
    c8a4:	0005883a 	mov	r2,zero
    c8a8:	003ffb06 	br	c898 <__call_exitprocs+0x16c>

0000c8ac <_exit>:
    c8ac:	defffd04 	addi	sp,sp,-12
    c8b0:	df000215 	stw	fp,8(sp)
    c8b4:	df000204 	addi	fp,sp,8
    c8b8:	e13fff15 	stw	r4,-4(fp)
    c8bc:	0001883a 	nop
    c8c0:	e0bfff17 	ldw	r2,-4(fp)
    c8c4:	e0bffe15 	stw	r2,-8(fp)
    c8c8:	e0bffe17 	ldw	r2,-8(fp)
    c8cc:	10000226 	beq	r2,zero,c8d8 <_exit+0x2c>
    c8d0:	002af070 	cmpltui	zero,zero,43969
    c8d4:	00000106 	br	c8dc <_exit+0x30>
    c8d8:	002af0b0 	cmpltui	zero,zero,43970
    c8dc:	003fff06 	br	c8dc <_exit+0x30>
